
FreqCount.elf:     file format elf32-avr

Sections:
Idx Name          Size      VMA       LMA       File off  Algn
  0 .text         0000120e  00000000  00000000  00000094  2**1
                  CONTENTS, ALLOC, LOAD, READONLY, CODE
  1 .data         00000010  00800060  0000120e  000012a2  2**0
                  CONTENTS, ALLOC, LOAD, DATA
  2 .bss          00000017  00800070  00800070  000012b2  2**0
                  ALLOC
  3 .comment      0000005c  00000000  00000000  000012b2  2**0
                  CONTENTS, READONLY
  4 .note.gnu.avr.deviceinfo 0000003c  00000000  00000000  00001310  2**2
                  CONTENTS, READONLY

Disassembly of section .text:

00000000 <__vectors>:
       0:	10 c0       	rjmp	.+32     	; 0x22 <__ctors_end>
       2:	2a c0       	rjmp	.+84     	; 0x58 <__bad_interrupt>
       4:	db c0       	rjmp	.+438    	; 0x1bc <__vector_2>
       6:	52 c1       	rjmp	.+676    	; 0x2ac <__vector_3>
       8:	27 c0       	rjmp	.+78     	; 0x58 <__bad_interrupt>
       a:	26 c0       	rjmp	.+76     	; 0x58 <__bad_interrupt>
       c:	25 c0       	rjmp	.+74     	; 0x58 <__bad_interrupt>
       e:	24 c0       	rjmp	.+72     	; 0x58 <__bad_interrupt>
      10:	76 c0       	rjmp	.+236    	; 0xfe <__vector_8>
      12:	22 c0       	rjmp	.+68     	; 0x58 <__bad_interrupt>
      14:	21 c0       	rjmp	.+66     	; 0x58 <__bad_interrupt>
      16:	20 c0       	rjmp	.+64     	; 0x58 <__bad_interrupt>
      18:	1f c0       	rjmp	.+62     	; 0x58 <__bad_interrupt>
      1a:	1e c0       	rjmp	.+60     	; 0x58 <__bad_interrupt>
      1c:	1d c0       	rjmp	.+58     	; 0x58 <__bad_interrupt>
      1e:	1c c0       	rjmp	.+56     	; 0x58 <__bad_interrupt>
      20:	1b c0       	rjmp	.+54     	; 0x58 <__bad_interrupt>

00000022 <__ctors_end>:
      22:	11 24       	eor	r1, r1
      24:	1f be       	out	0x3f, r1	; 63
      26:	cf e5       	ldi	r28, 0x5F	; 95
      28:	d2 e0       	ldi	r29, 0x02	; 2
      2a:	de bf       	out	0x3e, r29	; 62
      2c:	cd bf       	out	0x3d, r28	; 61

0000002e <__do_copy_data>:
      2e:	10 e0       	ldi	r17, 0x00	; 0
      30:	a0 e6       	ldi	r26, 0x60	; 96
      32:	b0 e0       	ldi	r27, 0x00	; 0
      34:	ee e0       	ldi	r30, 0x0E	; 14
      36:	f2 e1       	ldi	r31, 0x12	; 18
      38:	02 c0       	rjmp	.+4      	; 0x3e <__SP_H__>
      3a:	05 90       	lpm	r0, Z+
      3c:	0d 92       	st	X+, r0
      3e:	a0 37       	cpi	r26, 0x70	; 112
      40:	b1 07       	cpc	r27, r17
      42:	d9 f7       	brne	.-10     	; 0x3a <__do_copy_data+0xc>

00000044 <__do_clear_bss>:
      44:	20 e0       	ldi	r18, 0x00	; 0
      46:	a0 e7       	ldi	r26, 0x70	; 112
      48:	b0 e0       	ldi	r27, 0x00	; 0
      4a:	01 c0       	rjmp	.+2      	; 0x4e <.do_clear_bss_start>

0000004c <.do_clear_bss_loop>:
      4c:	1d 92       	st	X+, r1

0000004e <.do_clear_bss_start>:
      4e:	a7 38       	cpi	r26, 0x87	; 135
      50:	b2 07       	cpc	r27, r18
      52:	e1 f7       	brne	.-8      	; 0x4c <.do_clear_bss_loop>
      54:	fe d1       	rcall	.+1020   	; 0x452 <main>
      56:	d9 c8       	rjmp	.-3662   	; 0xfffff20a <__eeprom_end+0xff7ef20a>

00000058 <__bad_interrupt>:
      58:	d3 cf       	rjmp	.-90     	; 0x0 <__vectors>

0000005a <shift_out_24_PORTA>:
      5a:	0f 93       	push	r16
      5c:	cf 93       	push	r28
      5e:	df 93       	push	r29
      60:	0f 7d       	andi	r16, 0xDF	; 223
      62:	e1 e0       	ldi	r30, 0x01	; 1
      64:	f0 e0       	ldi	r31, 0x00	; 0
      66:	0d 34       	cpi	r16, 0x4D	; 77
      68:	39 f4       	brne	.+14     	; 0x78 <shift_out_24_PORTA+0x1e>
      6a:	9f ef       	ldi	r25, 0xFF	; 255
      6c:	94 0f       	add	r25, r20
      6e:	02 c0       	rjmp	.+4      	; 0x74 <shift_out_24_PORTA+0x1a>
      70:	ee 0f       	add	r30, r30
      72:	ff 1f       	adc	r31, r31
      74:	9a 95       	dec	r25
      76:	e2 f7       	brpl	.-8      	; 0x70 <shift_out_24_PORTA+0x16>
      78:	a1 e0       	ldi	r26, 0x01	; 1
      7a:	b0 e0       	ldi	r27, 0x00	; 0
      7c:	ed 01       	movw	r28, r26
      7e:	02 c0       	rjmp	.+4      	; 0x84 <shift_out_24_PORTA+0x2a>
      80:	cc 0f       	add	r28, r28
      82:	dd 1f       	adc	r29, r29
      84:	6a 95       	dec	r22
      86:	e2 f7       	brpl	.-8      	; 0x80 <shift_out_24_PORTA+0x26>
      88:	be 01       	movw	r22, r28
      8a:	5c 2f       	mov	r21, r28
      8c:	60 95       	com	r22
      8e:	ed 01       	movw	r28, r26
      90:	02 c0       	rjmp	.+4      	; 0x96 <shift_out_24_PORTA+0x3c>
      92:	cc 0f       	add	r28, r28
      94:	dd 1f       	adc	r29, r29
      96:	8a 95       	dec	r24
      98:	e2 f7       	brpl	.-8      	; 0x92 <shift_out_24_PORTA+0x38>
      9a:	ce 01       	movw	r24, r28
      9c:	7c 2f       	mov	r23, r28
      9e:	70 95       	com	r23
      a0:	44 23       	and	r20, r20
      a2:	c9 f0       	breq	.+50     	; 0xd6 <shift_out_24_PORTA+0x7c>
      a4:	df 01       	movw	r26, r30
      a6:	a2 23       	and	r26, r18
      a8:	b3 23       	and	r27, r19
      aa:	9b b3       	in	r25, 0x1b	; 27
      ac:	ab 2b       	or	r26, r27
      ae:	11 f0       	breq	.+4      	; 0xb4 <shift_out_24_PORTA+0x5a>
      b0:	95 2b       	or	r25, r21
      b2:	01 c0       	rjmp	.+2      	; 0xb6 <shift_out_24_PORTA+0x5c>
      b4:	96 23       	and	r25, r22
      b6:	9b bb       	out	0x1b, r25	; 27
      b8:	9b b3       	in	r25, 0x1b	; 27
      ba:	97 23       	and	r25, r23
      bc:	9b bb       	out	0x1b, r25	; 27
      be:	9b b3       	in	r25, 0x1b	; 27
      c0:	98 2b       	or	r25, r24
      c2:	9b bb       	out	0x1b, r25	; 27
      c4:	0d 34       	cpi	r16, 0x4D	; 77
      c6:	19 f4       	brne	.+6      	; 0xce <shift_out_24_PORTA+0x74>
      c8:	f6 95       	lsr	r31
      ca:	e7 95       	ror	r30
      cc:	02 c0       	rjmp	.+4      	; 0xd2 <shift_out_24_PORTA+0x78>
      ce:	ee 0f       	add	r30, r30
      d0:	ff 1f       	adc	r31, r31
      d2:	41 50       	subi	r20, 0x01	; 1
      d4:	e5 cf       	rjmp	.-54     	; 0xa0 <shift_out_24_PORTA+0x46>
      d6:	df 91       	pop	r29
      d8:	cf 91       	pop	r28
      da:	0f 91       	pop	r16
      dc:	08 95       	ret

000000de <init_timer1>:
      de:	8e b5       	in	r24, 0x2e	; 46
      e0:	81 60       	ori	r24, 0x01	; 1
      e2:	8e bd       	out	0x2e, r24	; 46
      e4:	60 9a       	sbi	0x0c, 0	; 12
      e6:	08 95       	ret

000000e8 <init_input_interrupts>:
      e8:	8b b7       	in	r24, 0x3b	; 59
      ea:	80 62       	ori	r24, 0x20	; 32
      ec:	8b bf       	out	0x3b, r24	; 59
      ee:	80 b5       	in	r24, 0x20	; 32
      f0:	84 60       	ori	r24, 0x04	; 4
      f2:	80 bd       	out	0x20, r24	; 32
      f4:	8b b7       	in	r24, 0x3b	; 59
      f6:	80 61       	ori	r24, 0x10	; 16
      f8:	8b bf       	out	0x3b, r24	; 59
      fa:	92 9a       	sbi	0x12, 2	; 18
      fc:	08 95       	ret

000000fe <__vector_8>:
      fe:	1f 92       	push	r1
     100:	0f 92       	push	r0
     102:	0f b6       	in	r0, 0x3f	; 63
     104:	0f 92       	push	r0
     106:	11 24       	eor	r1, r1
     108:	2f 93       	push	r18
     10a:	3f 93       	push	r19
     10c:	4f 93       	push	r20
     10e:	5f 93       	push	r21
     110:	6f 93       	push	r22
     112:	7f 93       	push	r23
     114:	8f 93       	push	r24
     116:	9f 93       	push	r25
     118:	af 93       	push	r26
     11a:	bf 93       	push	r27
     11c:	ef 93       	push	r30
     11e:	ff 93       	push	r31
     120:	80 91 7c 00 	lds	r24, 0x007C
     124:	90 91 7d 00 	lds	r25, 0x007D
     128:	a0 91 7e 00 	lds	r26, 0x007E
     12c:	b0 91 7f 00 	lds	r27, 0x007F
     130:	01 96       	adiw	r24, 0x01	; 1
     132:	a1 1d       	adc	r26, r1
     134:	b1 1d       	adc	r27, r1
     136:	80 93 7c 00 	sts	0x007C, r24
     13a:	90 93 7d 00 	sts	0x007D, r25
     13e:	a0 93 7e 00 	sts	0x007E, r26
     142:	b0 93 7f 00 	sts	0x007F, r27
     146:	9b b3       	in	r25, 0x1b	; 27
     148:	81 e0       	ldi	r24, 0x01	; 1
     14a:	89 27       	eor	r24, r25
     14c:	8b bb       	out	0x1b, r24	; 27
     14e:	60 91 7c 00 	lds	r22, 0x007C
     152:	70 91 7d 00 	lds	r23, 0x007D
     156:	80 91 7e 00 	lds	r24, 0x007E
     15a:	90 91 7f 00 	lds	r25, 0x007F
     15e:	1a d4       	rcall	.+2100   	; 0x994 <__floatunsisf>
     160:	20 e0       	ldi	r18, 0x00	; 0
     162:	30 e0       	ldi	r19, 0x00	; 0
     164:	40 ea       	ldi	r20, 0xA0	; 160
     166:	52 e4       	ldi	r21, 0x42	; 66
     168:	c7 d4       	rcall	.+2446   	; 0xaf8 <__gesf2>
     16a:	87 fd       	sbrc	r24, 7
     16c:	16 c0       	rjmp	.+44     	; 0x19a <__vector_8+0x9c>
     16e:	80 91 79 00 	lds	r24, 0x0079
     172:	88 23       	and	r24, r24
     174:	91 f0       	breq	.+36     	; 0x19a <__vector_8+0x9c>
     176:	81 50       	subi	r24, 0x01	; 1
     178:	80 93 79 00 	sts	0x0079, r24
     17c:	1d bc       	out	0x2d, r1	; 45
     17e:	86 e2       	ldi	r24, 0x26	; 38
     180:	8c bd       	out	0x2c, r24	; 44
     182:	10 92 7b 00 	sts	0x007B, r1
     186:	10 92 7a 00 	sts	0x007A, r1
     18a:	10 92 7c 00 	sts	0x007C, r1
     18e:	10 92 7d 00 	sts	0x007D, r1
     192:	10 92 7e 00 	sts	0x007E, r1
     196:	10 92 7f 00 	sts	0x007F, r1
     19a:	ff 91       	pop	r31
     19c:	ef 91       	pop	r30
     19e:	bf 91       	pop	r27
     1a0:	af 91       	pop	r26
     1a2:	9f 91       	pop	r25
     1a4:	8f 91       	pop	r24
     1a6:	7f 91       	pop	r23
     1a8:	6f 91       	pop	r22
     1aa:	5f 91       	pop	r21
     1ac:	4f 91       	pop	r20
     1ae:	3f 91       	pop	r19
     1b0:	2f 91       	pop	r18
     1b2:	0f 90       	pop	r0
     1b4:	0f be       	out	0x3f, r0	; 63
     1b6:	0f 90       	pop	r0
     1b8:	1f 90       	pop	r1
     1ba:	18 95       	reti

000001bc <__vector_2>:
     1bc:	1f 92       	push	r1
     1be:	0f 92       	push	r0
     1c0:	0f b6       	in	r0, 0x3f	; 63
     1c2:	0f 92       	push	r0
     1c4:	11 24       	eor	r1, r1
     1c6:	8f 93       	push	r24
     1c8:	ca 9b       	sbis	0x19, 2	; 25
     1ca:	03 c0       	rjmp	.+6      	; 0x1d2 <__vector_2+0x16>
     1cc:	81 e0       	ldi	r24, 0x01	; 1
     1ce:	80 93 70 00 	sts	0x0070, r24
     1d2:	8f 91       	pop	r24
     1d4:	0f 90       	pop	r0
     1d6:	0f be       	out	0x3f, r0	; 63
     1d8:	0f 90       	pop	r0
     1da:	1f 90       	pop	r1
     1dc:	18 95       	reti

000001de <transmit_frequency_measurement_UART>:
     1de:	0f 93       	push	r16
     1e0:	1f 93       	push	r17
     1e2:	cf 93       	push	r28
     1e4:	df 93       	push	r29
     1e6:	cd b7       	in	r28, 0x3d	; 61
     1e8:	de b7       	in	r29, 0x3e	; 62
     1ea:	61 97       	sbiw	r28, 0x11	; 17
     1ec:	0f b6       	in	r0, 0x3f	; 63
     1ee:	f8 94       	cli
     1f0:	de bf       	out	0x3e, r29	; 62
     1f2:	0f be       	out	0x3f, r0	; 63
     1f4:	cd bf       	out	0x3d, r28	; 61
     1f6:	9f 93       	push	r25
     1f8:	8f 93       	push	r24
     1fa:	7f 93       	push	r23
     1fc:	6f 93       	push	r22
     1fe:	8b e6       	ldi	r24, 0x6B	; 107
     200:	90 e0       	ldi	r25, 0x00	; 0
     202:	9f 93       	push	r25
     204:	8f 93       	push	r24
     206:	8e 01       	movw	r16, r28
     208:	0f 5f       	subi	r16, 0xFF	; 255
     20a:	1f 4f       	sbci	r17, 0xFF	; 255
     20c:	1f 93       	push	r17
     20e:	0f 93       	push	r16
     210:	2e 87       	std	Y+14, r18	; 0x0e
     212:	3f 87       	std	Y+15, r19	; 0x0f
     214:	48 8b       	std	Y+16, r20	; 0x10
     216:	59 8b       	std	Y+17, r21	; 0x11
     218:	27 d5       	rcall	.+2638   	; 0xc68 <sprintf>
     21a:	8a e0       	ldi	r24, 0x0A	; 10
     21c:	8d 87       	std	Y+13, r24	; 0x0d
     21e:	2e 85       	ldd	r18, Y+14	; 0x0e
     220:	3f 85       	ldd	r19, Y+15	; 0x0f
     222:	48 89       	ldd	r20, Y+16	; 0x10
     224:	59 89       	ldd	r21, Y+17	; 0x11
     226:	ca 01       	movw	r24, r20
     228:	b9 01       	movw	r22, r18
     22a:	b4 d3       	rcall	.+1896   	; 0x994 <__floatunsisf>
     22c:	9b 01       	movw	r18, r22
     22e:	ac 01       	movw	r20, r24
     230:	60 e8       	ldi	r22, 0x80	; 128
     232:	76 e9       	ldi	r23, 0x96	; 150
     234:	88 e9       	ldi	r24, 0x98	; 152
     236:	9b e4       	ldi	r25, 0x4B	; 75
     238:	19 d3       	rcall	.+1586   	; 0x86c <__divsf3>
     23a:	20 e0       	ldi	r18, 0x00	; 0
     23c:	30 e0       	ldi	r19, 0x00	; 0
     23e:	40 e4       	ldi	r20, 0x40	; 64
     240:	50 e4       	ldi	r21, 0x40	; 64
     242:	14 d3       	rcall	.+1576   	; 0x86c <__divsf3>
     244:	c8 d4       	rcall	.+2448   	; 0xbd6 <round>
     246:	20 e0       	ldi	r18, 0x00	; 0
     248:	30 e0       	ldi	r19, 0x00	; 0
     24a:	40 e8       	ldi	r20, 0x80	; 128
     24c:	5f e3       	ldi	r21, 0x3F	; 63
     24e:	a5 d2       	rcall	.+1354   	; 0x79a <__subsf3>
     250:	75 d3       	rcall	.+1770   	; 0x93c <__fixunssfsi>
     252:	0f b6       	in	r0, 0x3f	; 63
     254:	f8 94       	cli
     256:	de bf       	out	0x3e, r29	; 62
     258:	0f be       	out	0x3f, r0	; 63
     25a:	cd bf       	out	0x3d, r28	; 61
     25c:	f8 01       	movw	r30, r16
     25e:	4d e0       	ldi	r20, 0x0D	; 13
     260:	40 0f       	add	r20, r16
     262:	20 e0       	ldi	r18, 0x00	; 0
     264:	30 e0       	ldi	r19, 0x00	; 0
     266:	80 81       	ld	r24, Z
     268:	90 e0       	ldi	r25, 0x00	; 0
     26a:	02 2e       	mov	r0, r18
     26c:	02 c0       	rjmp	.+4      	; 0x272 <__stack+0x13>
     26e:	95 95       	asr	r25
     270:	87 95       	ror	r24
     272:	0a 94       	dec	r0
     274:	e2 f7       	brpl	.-8      	; 0x26e <__stack+0xf>
     276:	80 ff       	sbrs	r24, 0
     278:	02 c0       	rjmp	.+4      	; 0x27e <__stack+0x1f>
     27a:	d9 9a       	sbi	0x1b, 1	; 27
     27c:	01 c0       	rjmp	.+2      	; 0x280 <__stack+0x21>
     27e:	d9 98       	cbi	0x1b, 1	; 27
     280:	86 2f       	mov	r24, r22
     282:	8a 95       	dec	r24
     284:	f1 f7       	brne	.-4      	; 0x282 <__stack+0x23>
     286:	2f 5f       	subi	r18, 0xFF	; 255
     288:	3f 4f       	sbci	r19, 0xFF	; 255
     28a:	28 30       	cpi	r18, 0x08	; 8
     28c:	31 05       	cpc	r19, r1
     28e:	59 f7       	brne	.-42     	; 0x266 <__stack+0x7>
     290:	31 96       	adiw	r30, 0x01	; 1
     292:	4e 13       	cpse	r20, r30
     294:	e6 cf       	rjmp	.-52     	; 0x262 <__stack+0x3>
     296:	61 96       	adiw	r28, 0x11	; 17
     298:	0f b6       	in	r0, 0x3f	; 63
     29a:	f8 94       	cli
     29c:	de bf       	out	0x3e, r29	; 62
     29e:	0f be       	out	0x3f, r0	; 63
     2a0:	cd bf       	out	0x3d, r28	; 61
     2a2:	df 91       	pop	r29
     2a4:	cf 91       	pop	r28
     2a6:	1f 91       	pop	r17
     2a8:	0f 91       	pop	r16
     2aa:	08 95       	ret

000002ac <__vector_3>:
     2ac:	1f 92       	push	r1
     2ae:	0f 92       	push	r0
     2b0:	0f b6       	in	r0, 0x3f	; 63
     2b2:	0f 92       	push	r0
     2b4:	11 24       	eor	r1, r1
     2b6:	8f 92       	push	r8
     2b8:	9f 92       	push	r9
     2ba:	af 92       	push	r10
     2bc:	bf 92       	push	r11
     2be:	cf 92       	push	r12
     2c0:	df 92       	push	r13
     2c2:	ef 92       	push	r14
     2c4:	ff 92       	push	r15
     2c6:	2f 93       	push	r18
     2c8:	3f 93       	push	r19
     2ca:	4f 93       	push	r20
     2cc:	5f 93       	push	r21
     2ce:	6f 93       	push	r22
     2d0:	7f 93       	push	r23
     2d2:	8f 93       	push	r24
     2d4:	9f 93       	push	r25
     2d6:	af 93       	push	r26
     2d8:	bf 93       	push	r27
     2da:	ef 93       	push	r30
     2dc:	ff 93       	push	r31
     2de:	36 b3       	in	r19, 0x16	; 22
     2e0:	2c b5       	in	r18, 0x2c	; 44
     2e2:	cd b4       	in	r12, 0x2d	; 45
     2e4:	80 91 7c 00 	lds	r24, 0x007C
     2e8:	90 91 7d 00 	lds	r25, 0x007D
     2ec:	a0 91 7e 00 	lds	r26, 0x007E
     2f0:	b0 91 7f 00 	lds	r27, 0x007F
     2f4:	32 fd       	sbrc	r19, 2
     2f6:	94 c0       	rjmp	.+296    	; 0x420 <__vector_3+0x174>
     2f8:	d1 2c       	mov	r13, r1
     2fa:	dc 2c       	mov	r13, r12
     2fc:	cc 24       	eor	r12, r12
     2fe:	c2 0e       	add	r12, r18
     300:	d1 1c       	adc	r13, r1
     302:	21 e0       	ldi	r18, 0x01	; 1
     304:	20 93 80 00 	sts	0x0080, r18
     308:	20 91 7a 00 	lds	r18, 0x007A
     30c:	30 91 7b 00 	lds	r19, 0x007B
     310:	2f 5f       	subi	r18, 0xFF	; 255
     312:	3f 4f       	sbci	r19, 0xFF	; 255
     314:	30 93 7b 00 	sts	0x007B, r19
     318:	20 93 7a 00 	sts	0x007A, r18
     31c:	e1 2c       	mov	r14, r1
     31e:	f1 2c       	mov	r15, r1
     320:	dc 01       	movw	r26, r24
     322:	99 27       	eor	r25, r25
     324:	88 27       	eor	r24, r24
     326:	8c 0d       	add	r24, r12
     328:	9d 1d       	adc	r25, r13
     32a:	ae 1d       	adc	r26, r14
     32c:	bf 1d       	adc	r27, r15
     32e:	80 32       	cpi	r24, 0x20	; 32
     330:	91 4a       	sbci	r25, 0xA1	; 161
     332:	a7 40       	sbci	r26, 0x07	; 7
     334:	b1 05       	cpc	r27, r1
     336:	08 f4       	brcc	.+2      	; 0x33a <__vector_3+0x8e>
     338:	73 c0       	rjmp	.+230    	; 0x420 <__vector_3+0x174>
     33a:	1d bc       	out	0x2d, r1	; 45
     33c:	86 e2       	ldi	r24, 0x26	; 38
     33e:	8c bd       	out	0x2c, r24	; 44
     340:	60 91 7a 00 	lds	r22, 0x007A
     344:	70 91 7b 00 	lds	r23, 0x007B
     348:	80 e0       	ldi	r24, 0x00	; 0
     34a:	90 e0       	ldi	r25, 0x00	; 0
     34c:	23 d3       	rcall	.+1606   	; 0x994 <__floatunsisf>
     34e:	4b 01       	movw	r8, r22
     350:	5c 01       	movw	r10, r24
     352:	c7 01       	movw	r24, r14
     354:	b6 01       	movw	r22, r12
     356:	1e d3       	rcall	.+1596   	; 0x994 <__floatunsisf>
     358:	25 e9       	ldi	r18, 0x95	; 149
     35a:	3f eb       	ldi	r19, 0xBF	; 191
     35c:	46 e5       	ldi	r20, 0x56	; 86
     35e:	53 e3       	ldi	r21, 0x33	; 51
     360:	cf d3       	rcall	.+1950   	; 0xb00 <__mulsf3>
     362:	6b 01       	movw	r12, r22
     364:	7c 01       	movw	r14, r24
     366:	60 91 7c 00 	lds	r22, 0x007C
     36a:	70 91 7d 00 	lds	r23, 0x007D
     36e:	80 91 7e 00 	lds	r24, 0x007E
     372:	90 91 7f 00 	lds	r25, 0x007F
     376:	0e d3       	rcall	.+1564   	; 0x994 <__floatunsisf>
     378:	25 e9       	ldi	r18, 0x95	; 149
     37a:	3f eb       	ldi	r19, 0xBF	; 191
     37c:	46 e5       	ldi	r20, 0x56	; 86
     37e:	5b e3       	ldi	r21, 0x3B	; 59
     380:	bf d3       	rcall	.+1918   	; 0xb00 <__mulsf3>
     382:	9b 01       	movw	r18, r22
     384:	ac 01       	movw	r20, r24
     386:	c7 01       	movw	r24, r14
     388:	b6 01       	movw	r22, r12
     38a:	08 d2       	rcall	.+1040   	; 0x79c <__addsf3>
     38c:	9b 01       	movw	r18, r22
     38e:	ac 01       	movw	r20, r24
     390:	c5 01       	movw	r24, r10
     392:	b4 01       	movw	r22, r8
     394:	6b d2       	rcall	.+1238   	; 0x86c <__divsf3>
     396:	6b 01       	movw	r12, r22
     398:	7c 01       	movw	r14, r24
     39a:	60 93 75 00 	sts	0x0075, r22
     39e:	70 93 76 00 	sts	0x0076, r23
     3a2:	80 93 77 00 	sts	0x0077, r24
     3a6:	90 93 78 00 	sts	0x0078, r25
     3aa:	9b 01       	movw	r18, r22
     3ac:	ac 01       	movw	r20, r24
     3ae:	60 e0       	ldi	r22, 0x00	; 0
     3b0:	70 e0       	ldi	r23, 0x00	; 0
     3b2:	80 e8       	ldi	r24, 0x80	; 128
     3b4:	9f e3       	ldi	r25, 0x3F	; 63
     3b6:	5a d2       	rcall	.+1204   	; 0x86c <__divsf3>
     3b8:	60 93 71 00 	sts	0x0071, r22
     3bc:	70 93 72 00 	sts	0x0072, r23
     3c0:	80 93 73 00 	sts	0x0073, r24
     3c4:	90 93 74 00 	sts	0x0074, r25
     3c8:	10 92 7b 00 	sts	0x007B, r1
     3cc:	10 92 7a 00 	sts	0x007A, r1
     3d0:	10 92 7c 00 	sts	0x007C, r1
     3d4:	10 92 7d 00 	sts	0x007D, r1
     3d8:	10 92 7e 00 	sts	0x007E, r1
     3dc:	10 92 7f 00 	sts	0x007F, r1
     3e0:	20 e0       	ldi	r18, 0x00	; 0
     3e2:	30 e4       	ldi	r19, 0x40	; 64
     3e4:	4c e1       	ldi	r20, 0x1C	; 28
     3e6:	56 e4       	ldi	r21, 0x46	; 70
     3e8:	c7 01       	movw	r24, r14
     3ea:	b6 01       	movw	r22, r12
     3ec:	85 d3       	rcall	.+1802   	; 0xaf8 <__gesf2>
     3ee:	18 16       	cp	r1, r24
     3f0:	3c f4       	brge	.+14     	; 0x400 <__vector_3+0x154>
     3f2:	80 91 79 00 	lds	r24, 0x0079
     3f6:	86 30       	cpi	r24, 0x06	; 6
     3f8:	18 f4       	brcc	.+6      	; 0x400 <__vector_3+0x154>
     3fa:	8f 5f       	subi	r24, 0xFF	; 255
     3fc:	80 93 79 00 	sts	0x0079, r24
     400:	20 e0       	ldi	r18, 0x00	; 0
     402:	30 e0       	ldi	r19, 0x00	; 0
     404:	4a e7       	ldi	r20, 0x7A	; 122
     406:	54 e4       	ldi	r21, 0x44	; 68
     408:	c7 01       	movw	r24, r14
     40a:	b6 01       	movw	r22, r12
     40c:	2b d2       	rcall	.+1110   	; 0x864 <__cmpsf2>
     40e:	87 ff       	sbrs	r24, 7
     410:	07 c0       	rjmp	.+14     	; 0x420 <__vector_3+0x174>
     412:	80 91 79 00 	lds	r24, 0x0079
     416:	88 23       	and	r24, r24
     418:	19 f0       	breq	.+6      	; 0x420 <__vector_3+0x174>
     41a:	81 50       	subi	r24, 0x01	; 1
     41c:	80 93 79 00 	sts	0x0079, r24
     420:	ff 91       	pop	r31
     422:	ef 91       	pop	r30
     424:	bf 91       	pop	r27
     426:	af 91       	pop	r26
     428:	9f 91       	pop	r25
     42a:	8f 91       	pop	r24
     42c:	7f 91       	pop	r23
     42e:	6f 91       	pop	r22
     430:	5f 91       	pop	r21
     432:	4f 91       	pop	r20
     434:	3f 91       	pop	r19
     436:	2f 91       	pop	r18
     438:	ff 90       	pop	r15
     43a:	ef 90       	pop	r14
     43c:	df 90       	pop	r13
     43e:	cf 90       	pop	r12
     440:	bf 90       	pop	r11
     442:	af 90       	pop	r10
     444:	9f 90       	pop	r9
     446:	8f 90       	pop	r8
     448:	0f 90       	pop	r0
     44a:	0f be       	out	0x3f, r0	; 63
     44c:	0f 90       	pop	r0
     44e:	1f 90       	pop	r1
     450:	18 95       	reti

00000452 <main>:
     452:	cf 93       	push	r28
     454:	df 93       	push	r29
     456:	00 d0       	rcall	.+0      	; 0x458 <main+0x6>
     458:	00 d0       	rcall	.+0      	; 0x45a <main+0x8>
     45a:	cd b7       	in	r28, 0x3d	; 61
     45c:	de b7       	in	r29, 0x3e	; 62
     45e:	ba 98       	cbi	0x17, 2	; 23
     460:	d0 9a       	sbi	0x1a, 0	; 26
     462:	d3 9a       	sbi	0x1a, 3	; 26
     464:	d5 9a       	sbi	0x1a, 5	; 26
     466:	d4 9a       	sbi	0x1a, 4	; 26
     468:	d1 9a       	sbi	0x1a, 1	; 26
     46a:	d2 98       	cbi	0x1a, 2	; 26
     46c:	d8 98       	cbi	0x1b, 0	; 27
     46e:	db 98       	cbi	0x1b, 3	; 27
     470:	dd 98       	cbi	0x1b, 5	; 27
     472:	dc 98       	cbi	0x1b, 4	; 27
     474:	d9 9a       	sbi	0x1b, 1	; 27
     476:	da 9a       	sbi	0x1b, 2	; 27
     478:	d6 98       	cbi	0x1a, 6	; 26
     47a:	d7 98       	cbi	0x1a, 7	; 26
     47c:	d6 9a       	sbi	0x1a, 6	; 26
     47e:	d7 9a       	sbi	0x1a, 7	; 26
     480:	78 94       	sei
     482:	2d de       	rcall	.-934    	; 0xde <init_timer1>
     484:	31 de       	rcall	.-926    	; 0xe8 <init_input_interrupts>
     486:	e1 2c       	mov	r14, r1
     488:	d1 2c       	mov	r13, r1
     48a:	c1 2c       	mov	r12, r1
     48c:	19 82       	std	Y+1, r1	; 0x01
     48e:	81 2c       	mov	r8, r1
     490:	91 2c       	mov	r9, r1
     492:	1b 82       	std	Y+3, r1	; 0x03
     494:	1a 82       	std	Y+2, r1	; 0x02
     496:	a1 2c       	mov	r10, r1
     498:	b1 2c       	mov	r11, r1
     49a:	22 24       	eor	r2, r2
     49c:	23 94       	inc	r2
     49e:	31 2c       	mov	r3, r1
     4a0:	80 91 80 00 	lds	r24, 0x0080
     4a4:	81 11       	cpse	r24, r1
     4a6:	10 92 6a 00 	sts	0x006A, r1
     4aa:	80 91 70 00 	lds	r24, 0x0070
     4ae:	88 23       	and	r24, r24
     4b0:	49 f0       	breq	.+18     	; 0x4c4 <main+0x72>
     4b2:	20 e0       	ldi	r18, 0x00	; 0
     4b4:	32 ec       	ldi	r19, 0xC2	; 194
     4b6:	41 e0       	ldi	r20, 0x01	; 1
     4b8:	50 e0       	ldi	r21, 0x00	; 0
     4ba:	6e 2d       	mov	r22, r14
     4bc:	7d 2d       	mov	r23, r13
     4be:	8c 2d       	mov	r24, r12
     4c0:	99 81       	ldd	r25, Y+1	; 0x01
     4c2:	8d de       	rcall	.-742    	; 0x1de <transmit_frequency_measurement_UART>
     4c4:	80 91 6a 00 	lds	r24, 0x006A
     4c8:	81 11       	cpse	r24, r1
     4ca:	09 c1       	rjmp	.+530    	; 0x6de <main+0x28c>
     4cc:	26 e0       	ldi	r18, 0x06	; 6
     4ce:	a2 16       	cp	r10, r18
     4d0:	b1 04       	cpc	r11, r1
     4d2:	08 f4       	brcc	.+2      	; 0x4d6 <main+0x84>
     4d4:	d1 c0       	rjmp	.+418    	; 0x678 <main+0x226>
     4d6:	80 91 79 00 	lds	r24, 0x0079
     4da:	88 0f       	add	r24, r24
     4dc:	21 e0       	ldi	r18, 0x01	; 1
     4de:	30 e0       	ldi	r19, 0x00	; 0
     4e0:	40 e0       	ldi	r20, 0x00	; 0
     4e2:	50 e0       	ldi	r21, 0x00	; 0
     4e4:	04 c0       	rjmp	.+8      	; 0x4ee <main+0x9c>
     4e6:	22 0f       	add	r18, r18
     4e8:	33 1f       	adc	r19, r19
     4ea:	44 1f       	adc	r20, r20
     4ec:	55 1f       	adc	r21, r21
     4ee:	8a 95       	dec	r24
     4f0:	d2 f7       	brpl	.-12     	; 0x4e6 <main+0x94>
     4f2:	ca 01       	movw	r24, r20
     4f4:	b9 01       	movw	r22, r18
     4f6:	4e d2       	rcall	.+1180   	; 0x994 <__floatunsisf>
     4f8:	2b 01       	movw	r4, r22
     4fa:	3c 01       	movw	r6, r24
     4fc:	20 91 75 00 	lds	r18, 0x0075
     500:	30 91 76 00 	lds	r19, 0x0076
     504:	40 91 77 00 	lds	r20, 0x0077
     508:	50 91 78 00 	lds	r21, 0x0078
     50c:	f9 d2       	rcall	.+1522   	; 0xb00 <__mulsf3>
     50e:	e6 2e       	mov	r14, r22
     510:	d7 2e       	mov	r13, r23
     512:	c8 2e       	mov	r12, r24
     514:	99 83       	std	Y+1, r25	; 0x01
     516:	80 90 71 00 	lds	r8, 0x0071
     51a:	90 90 72 00 	lds	r9, 0x0072
     51e:	a0 90 73 00 	lds	r10, 0x0073
     522:	b0 90 74 00 	lds	r11, 0x0074
     526:	20 e0       	ldi	r18, 0x00	; 0
     528:	34 e2       	ldi	r19, 0x24	; 36
     52a:	44 e7       	ldi	r20, 0x74	; 116
     52c:	59 e4       	ldi	r21, 0x49	; 73
     52e:	e4 d2       	rcall	.+1480   	; 0xaf8 <__gesf2>
     530:	87 fd       	sbrc	r24, 7
     532:	10 c0       	rjmp	.+32     	; 0x554 <main+0x102>
     534:	20 e0       	ldi	r18, 0x00	; 0
     536:	34 e2       	ldi	r19, 0x24	; 36
     538:	44 e7       	ldi	r20, 0x74	; 116
     53a:	59 e4       	ldi	r21, 0x49	; 73
     53c:	6e 2d       	mov	r22, r14
     53e:	7d 2d       	mov	r23, r13
     540:	8c 2d       	mov	r24, r12
     542:	99 81       	ldd	r25, Y+1	; 0x01
     544:	93 d1       	rcall	.+806    	; 0x86c <__divsf3>
     546:	b6 2e       	mov	r11, r22
     548:	7c 83       	std	Y+4, r23	; 0x04
     54a:	18 2f       	mov	r17, r24
     54c:	09 2f       	mov	r16, r25
     54e:	81 2c       	mov	r8, r1
     550:	91 2c       	mov	r9, r1
     552:	37 c0       	rjmp	.+110    	; 0x5c2 <main+0x170>
     554:	20 e0       	ldi	r18, 0x00	; 0
     556:	30 e0       	ldi	r19, 0x00	; 0
     558:	40 e8       	ldi	r20, 0x80	; 128
     55a:	5f e3       	ldi	r21, 0x3F	; 63
     55c:	6e 2d       	mov	r22, r14
     55e:	7d 2d       	mov	r23, r13
     560:	8c 2d       	mov	r24, r12
     562:	99 81       	ldd	r25, Y+1	; 0x01
     564:	c9 d2       	rcall	.+1426   	; 0xaf8 <__gesf2>
     566:	87 ff       	sbrs	r24, 7
     568:	21 c0       	rjmp	.+66     	; 0x5ac <main+0x15a>
     56a:	a3 01       	movw	r20, r6
     56c:	92 01       	movw	r18, r4
     56e:	c5 01       	movw	r24, r10
     570:	b4 01       	movw	r22, r8
     572:	7c d1       	rcall	.+760    	; 0x86c <__divsf3>
     574:	b6 2e       	mov	r11, r22
     576:	7c 83       	std	Y+4, r23	; 0x04
     578:	18 2f       	mov	r17, r24
     57a:	09 2f       	mov	r16, r25
     57c:	20 e0       	ldi	r18, 0x00	; 0
     57e:	30 e0       	ldi	r19, 0x00	; 0
     580:	40 e7       	ldi	r20, 0x70	; 112
     582:	52 e4       	ldi	r21, 0x42	; 66
     584:	6f d1       	rcall	.+734    	; 0x864 <__cmpsf2>
     586:	18 16       	cp	r1, r24
     588:	cc f4       	brge	.+50     	; 0x5bc <main+0x16a>
     58a:	20 e0       	ldi	r18, 0x00	; 0
     58c:	30 e0       	ldi	r19, 0x00	; 0
     58e:	40 e7       	ldi	r20, 0x70	; 112
     590:	52 e4       	ldi	r21, 0x42	; 66
     592:	6b 2d       	mov	r22, r11
     594:	7c 81       	ldd	r23, Y+4	; 0x04
     596:	81 2f       	mov	r24, r17
     598:	90 2f       	mov	r25, r16
     59a:	68 d1       	rcall	.+720    	; 0x86c <__divsf3>
     59c:	b6 2e       	mov	r11, r22
     59e:	7c 83       	std	Y+4, r23	; 0x04
     5a0:	18 2f       	mov	r17, r24
     5a2:	09 2f       	mov	r16, r25
     5a4:	33 e0       	ldi	r19, 0x03	; 3
     5a6:	83 2e       	mov	r8, r19
     5a8:	91 2c       	mov	r9, r1
     5aa:	0b c0       	rjmp	.+22     	; 0x5c2 <main+0x170>
     5ac:	be 2c       	mov	r11, r14
     5ae:	dc 82       	std	Y+4, r13	; 0x04
     5b0:	1c 2d       	mov	r17, r12
     5b2:	09 81       	ldd	r16, Y+1	; 0x01
     5b4:	88 24       	eor	r8, r8
     5b6:	83 94       	inc	r8
     5b8:	91 2c       	mov	r9, r1
     5ba:	03 c0       	rjmp	.+6      	; 0x5c2 <main+0x170>
     5bc:	92 e0       	ldi	r25, 0x02	; 2
     5be:	89 2e       	mov	r8, r25
     5c0:	91 2c       	mov	r9, r1
     5c2:	41 2c       	mov	r4, r1
     5c4:	84 e2       	ldi	r24, 0x24	; 36
     5c6:	58 2e       	mov	r5, r24
     5c8:	84 e7       	ldi	r24, 0x74	; 116
     5ca:	68 2e       	mov	r6, r24
     5cc:	89 e4       	ldi	r24, 0x49	; 73
     5ce:	78 2e       	mov	r7, r24
     5d0:	ff 24       	eor	r15, r15
     5d2:	fa 94       	dec	r15
     5d4:	a3 01       	movw	r20, r6
     5d6:	92 01       	movw	r18, r4
     5d8:	6b 2d       	mov	r22, r11
     5da:	7c 81       	ldd	r23, Y+4	; 0x04
     5dc:	81 2f       	mov	r24, r17
     5de:	90 2f       	mov	r25, r16
     5e0:	8b d2       	rcall	.+1302   	; 0xaf8 <__gesf2>
     5e2:	87 fd       	sbrc	r24, 7
     5e4:	03 c0       	rjmp	.+6      	; 0x5ec <main+0x19a>
     5e6:	3f ef       	ldi	r19, 0xFF	; 255
     5e8:	f3 16       	cp	r15, r19
     5ea:	21 f0       	breq	.+8      	; 0x5f4 <main+0x1a2>
     5ec:	45 e0       	ldi	r20, 0x05	; 5
     5ee:	4f 15       	cp	r20, r15
     5f0:	a8 f1       	brcs	.+106    	; 0x65c <main+0x20a>
     5f2:	01 c0       	rjmp	.+2      	; 0x5f6 <main+0x1a4>
     5f4:	f1 2c       	mov	r15, r1
     5f6:	a3 01       	movw	r20, r6
     5f8:	92 01       	movw	r18, r4
     5fa:	6b 2d       	mov	r22, r11
     5fc:	7c 81       	ldd	r23, Y+4	; 0x04
     5fe:	81 2f       	mov	r24, r17
     600:	90 2f       	mov	r25, r16
     602:	34 d1       	rcall	.+616    	; 0x86c <__divsf3>
     604:	9b d1       	rcall	.+822    	; 0x93c <__fixunssfsi>
     606:	a6 2e       	mov	r10, r22
     608:	70 e0       	ldi	r23, 0x00	; 0
     60a:	80 e0       	ldi	r24, 0x00	; 0
     60c:	90 e0       	ldi	r25, 0x00	; 0
     60e:	c2 d1       	rcall	.+900    	; 0x994 <__floatunsisf>
     610:	a3 01       	movw	r20, r6
     612:	92 01       	movw	r18, r4
     614:	75 d2       	rcall	.+1258   	; 0xb00 <__mulsf3>
     616:	9b 01       	movw	r18, r22
     618:	ac 01       	movw	r20, r24
     61a:	6b 2d       	mov	r22, r11
     61c:	7c 81       	ldd	r23, Y+4	; 0x04
     61e:	81 2f       	mov	r24, r17
     620:	90 2f       	mov	r25, r16
     622:	bb d0       	rcall	.+374    	; 0x79a <__subsf3>
     624:	b6 2e       	mov	r11, r22
     626:	7c 83       	std	Y+4, r23	; 0x04
     628:	18 2f       	mov	r17, r24
     62a:	09 2f       	mov	r16, r25
     62c:	ea 2d       	mov	r30, r10
     62e:	f0 e0       	ldi	r31, 0x00	; 0
     630:	e0 5a       	subi	r30, 0xA0	; 160
     632:	ff 4f       	sbci	r31, 0xFF	; 255
     634:	a0 80       	ld	r10, Z
     636:	20 e0       	ldi	r18, 0x00	; 0
     638:	30 e0       	ldi	r19, 0x00	; 0
     63a:	40 e8       	ldi	r20, 0x80	; 128
     63c:	5f e3       	ldi	r21, 0x3F	; 63
     63e:	c3 01       	movw	r24, r6
     640:	b2 01       	movw	r22, r4
     642:	10 d1       	rcall	.+544    	; 0x864 <__cmpsf2>
     644:	ef 2d       	mov	r30, r15
     646:	f0 e0       	ldi	r31, 0x00	; 0
     648:	ef 57       	subi	r30, 0x7F	; 127
     64a:	ff 4f       	sbci	r31, 0xFF	; 255
     64c:	88 23       	and	r24, r24
     64e:	11 f0       	breq	.+4      	; 0x654 <main+0x202>
     650:	a0 82       	st	Z, r10
     652:	03 c0       	rjmp	.+6      	; 0x65a <main+0x208>
     654:	8a 2d       	mov	r24, r10
     656:	80 68       	ori	r24, 0x80	; 128
     658:	80 83       	st	Z, r24
     65a:	f3 94       	inc	r15
     65c:	20 e0       	ldi	r18, 0x00	; 0
     65e:	30 e0       	ldi	r19, 0x00	; 0
     660:	40 e2       	ldi	r20, 0x20	; 32
     662:	51 e4       	ldi	r21, 0x41	; 65
     664:	c3 01       	movw	r24, r6
     666:	b2 01       	movw	r22, r4
     668:	01 d1       	rcall	.+514    	; 0x86c <__divsf3>
     66a:	2b 01       	movw	r4, r22
     66c:	3c 01       	movw	r6, r24
     66e:	56 e0       	ldi	r21, 0x06	; 6
     670:	f5 12       	cpse	r15, r21
     672:	b0 cf       	rjmp	.-160    	; 0x5d4 <main+0x182>
     674:	a1 2c       	mov	r10, r1
     676:	b1 2c       	mov	r11, r1
     678:	91 01       	movw	r18, r2
     67a:	0a 2c       	mov	r0, r10
     67c:	02 c0       	rjmp	.+4      	; 0x682 <main+0x230>
     67e:	22 0f       	add	r18, r18
     680:	33 1f       	adc	r19, r19
     682:	0a 94       	dec	r0
     684:	e2 f7       	brpl	.-8      	; 0x67e <main+0x22c>
     686:	0d e6       	ldi	r16, 0x6D	; 109
     688:	48 e0       	ldi	r20, 0x08	; 8
     68a:	63 e0       	ldi	r22, 0x03	; 3
     68c:	85 e0       	ldi	r24, 0x05	; 5
     68e:	e5 dc       	rcall	.-1590   	; 0x5a <shift_out_24_PORTA>
     690:	20 91 79 00 	lds	r18, 0x0079
     694:	30 e0       	ldi	r19, 0x00	; 0
     696:	44 e0       	ldi	r20, 0x04	; 4
     698:	63 e0       	ldi	r22, 0x03	; 3
     69a:	85 e0       	ldi	r24, 0x05	; 5
     69c:	de dc       	rcall	.-1604   	; 0x5a <shift_out_24_PORTA>
     69e:	91 01       	movw	r18, r2
     6a0:	08 2c       	mov	r0, r8
     6a2:	02 c0       	rjmp	.+4      	; 0x6a8 <main+0x256>
     6a4:	22 0f       	add	r18, r18
     6a6:	33 1f       	adc	r19, r19
     6a8:	0a 94       	dec	r0
     6aa:	e2 f7       	brpl	.-8      	; 0x6a4 <main+0x252>
     6ac:	44 e0       	ldi	r20, 0x04	; 4
     6ae:	63 e0       	ldi	r22, 0x03	; 3
     6b0:	85 e0       	ldi	r24, 0x05	; 5
     6b2:	d3 dc       	rcall	.-1626   	; 0x5a <shift_out_24_PORTA>
     6b4:	f5 01       	movw	r30, r10
     6b6:	ef 57       	subi	r30, 0x7F	; 127
     6b8:	ff 4f       	sbci	r31, 0xFF	; 255
     6ba:	20 81       	ld	r18, Z
     6bc:	30 e0       	ldi	r19, 0x00	; 0
     6be:	48 e0       	ldi	r20, 0x08	; 8
     6c0:	63 e0       	ldi	r22, 0x03	; 3
     6c2:	85 e0       	ldi	r24, 0x05	; 5
     6c4:	ca dc       	rcall	.-1644   	; 0x5a <shift_out_24_PORTA>
     6c6:	dc 98       	cbi	0x1b, 4	; 27
     6c8:	dc 9a       	sbi	0x1b, 4	; 27
     6ca:	8f e0       	ldi	r24, 0x0F	; 15
     6cc:	97 e2       	ldi	r25, 0x27	; 39
     6ce:	01 97       	sbiw	r24, 0x01	; 1
     6d0:	f1 f7       	brne	.-4      	; 0x6ce <main+0x27c>
     6d2:	00 c0       	rjmp	.+0      	; 0x6d4 <main+0x282>
     6d4:	00 00       	nop
     6d6:	9f ef       	ldi	r25, 0xFF	; 255
     6d8:	a9 1a       	sub	r10, r25
     6da:	b9 0a       	sbc	r11, r25
     6dc:	e1 ce       	rjmp	.-574    	; 0x4a0 <main+0x4e>
     6de:	ea 81       	ldd	r30, Y+2	; 0x02
     6e0:	fb 81       	ldd	r31, Y+3	; 0x03
     6e2:	38 97       	sbiw	r30, 0x08	; 8
     6e4:	28 f0       	brcs	.+10     	; 0x6f0 <main+0x29e>
     6e6:	ff ef       	ldi	r31, 0xFF	; 255
     6e8:	af 1a       	sub	r10, r31
     6ea:	bf 0a       	sbc	r11, r31
     6ec:	1b 82       	std	Y+3, r1	; 0x03
     6ee:	1a 82       	std	Y+2, r1	; 0x02
     6f0:	26 e0       	ldi	r18, 0x06	; 6
     6f2:	a2 16       	cp	r10, r18
     6f4:	b1 04       	cpc	r11, r1
     6f6:	28 f0       	brcs	.+10     	; 0x702 <main+0x2b0>
     6f8:	3f ef       	ldi	r19, 0xFF	; 255
     6fa:	83 1a       	sub	r8, r19
     6fc:	93 0a       	sbc	r9, r19
     6fe:	a1 2c       	mov	r10, r1
     700:	b1 2c       	mov	r11, r1
     702:	44 e0       	ldi	r20, 0x04	; 4
     704:	84 16       	cp	r8, r20
     706:	91 04       	cpc	r9, r1
     708:	10 f0       	brcs	.+4      	; 0x70e <main+0x2bc>
     70a:	81 2c       	mov	r8, r1
     70c:	91 2c       	mov	r9, r1
     70e:	0d e6       	ldi	r16, 0x6D	; 109
     710:	20 e0       	ldi	r18, 0x00	; 0
     712:	30 e0       	ldi	r19, 0x00	; 0
     714:	42 e0       	ldi	r20, 0x02	; 2
     716:	63 e0       	ldi	r22, 0x03	; 3
     718:	85 e0       	ldi	r24, 0x05	; 5
     71a:	9f dc       	rcall	.-1730   	; 0x5a <shift_out_24_PORTA>
     71c:	91 01       	movw	r18, r2
     71e:	0a 2c       	mov	r0, r10
     720:	02 c0       	rjmp	.+4      	; 0x726 <main+0x2d4>
     722:	22 0f       	add	r18, r18
     724:	33 1f       	adc	r19, r19
     726:	0a 94       	dec	r0
     728:	e2 f7       	brpl	.-8      	; 0x722 <main+0x2d0>
     72a:	46 e0       	ldi	r20, 0x06	; 6
     72c:	63 e0       	ldi	r22, 0x03	; 3
     72e:	85 e0       	ldi	r24, 0x05	; 5
     730:	94 dc       	rcall	.-1752   	; 0x5a <shift_out_24_PORTA>
     732:	20 e0       	ldi	r18, 0x00	; 0
     734:	30 e0       	ldi	r19, 0x00	; 0
     736:	41 e0       	ldi	r20, 0x01	; 1
     738:	63 e0       	ldi	r22, 0x03	; 3
     73a:	85 e0       	ldi	r24, 0x05	; 5
     73c:	8e dc       	rcall	.-1764   	; 0x5a <shift_out_24_PORTA>
     73e:	20 91 79 00 	lds	r18, 0x0079
     742:	30 e0       	ldi	r19, 0x00	; 0
     744:	43 e0       	ldi	r20, 0x03	; 3
     746:	63 e0       	ldi	r22, 0x03	; 3
     748:	85 e0       	ldi	r24, 0x05	; 5
     74a:	87 dc       	rcall	.-1778   	; 0x5a <shift_out_24_PORTA>
     74c:	91 01       	movw	r18, r2
     74e:	08 2c       	mov	r0, r8
     750:	02 c0       	rjmp	.+4      	; 0x756 <main+0x304>
     752:	22 0f       	add	r18, r18
     754:	33 1f       	adc	r19, r19
     756:	0a 94       	dec	r0
     758:	e2 f7       	brpl	.-8      	; 0x752 <main+0x300>
     75a:	44 e0       	ldi	r20, 0x04	; 4
     75c:	63 e0       	ldi	r22, 0x03	; 3
     75e:	85 e0       	ldi	r24, 0x05	; 5
     760:	7c dc       	rcall	.-1800   	; 0x5a <shift_out_24_PORTA>
     762:	91 01       	movw	r18, r2
     764:	0a 80       	ldd	r0, Y+2	; 0x02
     766:	02 c0       	rjmp	.+4      	; 0x76c <main+0x31a>
     768:	22 0f       	add	r18, r18
     76a:	33 1f       	adc	r19, r19
     76c:	0a 94       	dec	r0
     76e:	e2 f7       	brpl	.-8      	; 0x768 <main+0x316>
     770:	48 e0       	ldi	r20, 0x08	; 8
     772:	63 e0       	ldi	r22, 0x03	; 3
     774:	85 e0       	ldi	r24, 0x05	; 5
     776:	71 dc       	rcall	.-1822   	; 0x5a <shift_out_24_PORTA>
     778:	dc 98       	cbi	0x1b, 4	; 27
     77a:	dc 9a       	sbi	0x1b, 4	; 27
     77c:	5f e3       	ldi	r21, 0x3F	; 63
     77e:	8d e0       	ldi	r24, 0x0D	; 13
     780:	93 e0       	ldi	r25, 0x03	; 3
     782:	51 50       	subi	r21, 0x01	; 1
     784:	80 40       	sbci	r24, 0x00	; 0
     786:	90 40       	sbci	r25, 0x00	; 0
     788:	e1 f7       	brne	.-8      	; 0x782 <main+0x330>
     78a:	00 c0       	rjmp	.+0      	; 0x78c <main+0x33a>
     78c:	00 00       	nop
     78e:	ea 81       	ldd	r30, Y+2	; 0x02
     790:	fb 81       	ldd	r31, Y+3	; 0x03
     792:	31 96       	adiw	r30, 0x01	; 1
     794:	fb 83       	std	Y+3, r31	; 0x03
     796:	ea 83       	std	Y+2, r30	; 0x02
     798:	83 ce       	rjmp	.-762    	; 0x4a0 <main+0x4e>

0000079a <__subsf3>:
     79a:	50 58       	subi	r21, 0x80	; 128

0000079c <__addsf3>:
     79c:	bb 27       	eor	r27, r27
     79e:	aa 27       	eor	r26, r26
     7a0:	0e d0       	rcall	.+28     	; 0x7be <__addsf3x>
     7a2:	70 c1       	rjmp	.+736    	; 0xa84 <__fp_round>
     7a4:	61 d1       	rcall	.+706    	; 0xa68 <__fp_pscA>
     7a6:	30 f0       	brcs	.+12     	; 0x7b4 <__addsf3+0x18>
     7a8:	66 d1       	rcall	.+716    	; 0xa76 <__fp_pscB>
     7aa:	20 f0       	brcs	.+8      	; 0x7b4 <__addsf3+0x18>
     7ac:	31 f4       	brne	.+12     	; 0x7ba <__addsf3+0x1e>
     7ae:	9f 3f       	cpi	r25, 0xFF	; 255
     7b0:	11 f4       	brne	.+4      	; 0x7b6 <__addsf3+0x1a>
     7b2:	1e f4       	brtc	.+6      	; 0x7ba <__addsf3+0x1e>
     7b4:	56 c1       	rjmp	.+684    	; 0xa62 <__fp_nan>
     7b6:	0e f4       	brtc	.+2      	; 0x7ba <__addsf3+0x1e>
     7b8:	e0 95       	com	r30
     7ba:	e7 fb       	bst	r30, 7
     7bc:	4c c1       	rjmp	.+664    	; 0xa56 <__fp_inf>

000007be <__addsf3x>:
     7be:	e9 2f       	mov	r30, r25
     7c0:	72 d1       	rcall	.+740    	; 0xaa6 <__fp_split3>
     7c2:	80 f3       	brcs	.-32     	; 0x7a4 <__addsf3+0x8>
     7c4:	ba 17       	cp	r27, r26
     7c6:	62 07       	cpc	r22, r18
     7c8:	73 07       	cpc	r23, r19
     7ca:	84 07       	cpc	r24, r20
     7cc:	95 07       	cpc	r25, r21
     7ce:	18 f0       	brcs	.+6      	; 0x7d6 <__addsf3x+0x18>
     7d0:	71 f4       	brne	.+28     	; 0x7ee <__addsf3x+0x30>
     7d2:	9e f5       	brtc	.+102    	; 0x83a <__addsf3x+0x7c>
     7d4:	8a c1       	rjmp	.+788    	; 0xaea <__fp_zero>
     7d6:	0e f4       	brtc	.+2      	; 0x7da <__addsf3x+0x1c>
     7d8:	e0 95       	com	r30
     7da:	0b 2e       	mov	r0, r27
     7dc:	ba 2f       	mov	r27, r26
     7de:	a0 2d       	mov	r26, r0
     7e0:	0b 01       	movw	r0, r22
     7e2:	b9 01       	movw	r22, r18
     7e4:	90 01       	movw	r18, r0
     7e6:	0c 01       	movw	r0, r24
     7e8:	ca 01       	movw	r24, r20
     7ea:	a0 01       	movw	r20, r0
     7ec:	11 24       	eor	r1, r1
     7ee:	ff 27       	eor	r31, r31
     7f0:	59 1b       	sub	r21, r25
     7f2:	99 f0       	breq	.+38     	; 0x81a <__addsf3x+0x5c>
     7f4:	59 3f       	cpi	r21, 0xF9	; 249
     7f6:	50 f4       	brcc	.+20     	; 0x80c <__addsf3x+0x4e>
     7f8:	50 3e       	cpi	r21, 0xE0	; 224
     7fa:	68 f1       	brcs	.+90     	; 0x856 <__addsf3x+0x98>
     7fc:	1a 16       	cp	r1, r26
     7fe:	f0 40       	sbci	r31, 0x00	; 0
     800:	a2 2f       	mov	r26, r18
     802:	23 2f       	mov	r18, r19
     804:	34 2f       	mov	r19, r20
     806:	44 27       	eor	r20, r20
     808:	58 5f       	subi	r21, 0xF8	; 248
     80a:	f3 cf       	rjmp	.-26     	; 0x7f2 <__addsf3x+0x34>
     80c:	46 95       	lsr	r20
     80e:	37 95       	ror	r19
     810:	27 95       	ror	r18
     812:	a7 95       	ror	r26
     814:	f0 40       	sbci	r31, 0x00	; 0
     816:	53 95       	inc	r21
     818:	c9 f7       	brne	.-14     	; 0x80c <__addsf3x+0x4e>
     81a:	7e f4       	brtc	.+30     	; 0x83a <__addsf3x+0x7c>
     81c:	1f 16       	cp	r1, r31
     81e:	ba 0b       	sbc	r27, r26
     820:	62 0b       	sbc	r22, r18
     822:	73 0b       	sbc	r23, r19
     824:	84 0b       	sbc	r24, r20
     826:	ba f0       	brmi	.+46     	; 0x856 <__addsf3x+0x98>
     828:	91 50       	subi	r25, 0x01	; 1
     82a:	a1 f0       	breq	.+40     	; 0x854 <__addsf3x+0x96>
     82c:	ff 0f       	add	r31, r31
     82e:	bb 1f       	adc	r27, r27
     830:	66 1f       	adc	r22, r22
     832:	77 1f       	adc	r23, r23
     834:	88 1f       	adc	r24, r24
     836:	c2 f7       	brpl	.-16     	; 0x828 <__addsf3x+0x6a>
     838:	0e c0       	rjmp	.+28     	; 0x856 <__addsf3x+0x98>
     83a:	ba 0f       	add	r27, r26
     83c:	62 1f       	adc	r22, r18
     83e:	73 1f       	adc	r23, r19
     840:	84 1f       	adc	r24, r20
     842:	48 f4       	brcc	.+18     	; 0x856 <__addsf3x+0x98>
     844:	87 95       	ror	r24
     846:	77 95       	ror	r23
     848:	67 95       	ror	r22
     84a:	b7 95       	ror	r27
     84c:	f7 95       	ror	r31
     84e:	9e 3f       	cpi	r25, 0xFE	; 254
     850:	08 f0       	brcs	.+2      	; 0x854 <__addsf3x+0x96>
     852:	b3 cf       	rjmp	.-154    	; 0x7ba <__addsf3+0x1e>
     854:	93 95       	inc	r25
     856:	88 0f       	add	r24, r24
     858:	08 f0       	brcs	.+2      	; 0x85c <__addsf3x+0x9e>
     85a:	99 27       	eor	r25, r25
     85c:	ee 0f       	add	r30, r30
     85e:	97 95       	ror	r25
     860:	87 95       	ror	r24
     862:	08 95       	ret

00000864 <__cmpsf2>:
     864:	d4 d0       	rcall	.+424    	; 0xa0e <__fp_cmp>
     866:	08 f4       	brcc	.+2      	; 0x86a <__cmpsf2+0x6>
     868:	81 e0       	ldi	r24, 0x01	; 1
     86a:	08 95       	ret

0000086c <__divsf3>:
     86c:	0c d0       	rcall	.+24     	; 0x886 <__divsf3x>
     86e:	0a c1       	rjmp	.+532    	; 0xa84 <__fp_round>
     870:	02 d1       	rcall	.+516    	; 0xa76 <__fp_pscB>
     872:	40 f0       	brcs	.+16     	; 0x884 <__divsf3+0x18>
     874:	f9 d0       	rcall	.+498    	; 0xa68 <__fp_pscA>
     876:	30 f0       	brcs	.+12     	; 0x884 <__divsf3+0x18>
     878:	21 f4       	brne	.+8      	; 0x882 <__divsf3+0x16>
     87a:	5f 3f       	cpi	r21, 0xFF	; 255
     87c:	19 f0       	breq	.+6      	; 0x884 <__divsf3+0x18>
     87e:	eb c0       	rjmp	.+470    	; 0xa56 <__fp_inf>
     880:	51 11       	cpse	r21, r1
     882:	34 c1       	rjmp	.+616    	; 0xaec <__fp_szero>
     884:	ee c0       	rjmp	.+476    	; 0xa62 <__fp_nan>

00000886 <__divsf3x>:
     886:	0f d1       	rcall	.+542    	; 0xaa6 <__fp_split3>
     888:	98 f3       	brcs	.-26     	; 0x870 <__divsf3+0x4>

0000088a <__divsf3_pse>:
     88a:	99 23       	and	r25, r25
     88c:	c9 f3       	breq	.-14     	; 0x880 <__divsf3+0x14>
     88e:	55 23       	and	r21, r21
     890:	b1 f3       	breq	.-20     	; 0x87e <__divsf3+0x12>
     892:	95 1b       	sub	r25, r21
     894:	55 0b       	sbc	r21, r21
     896:	bb 27       	eor	r27, r27
     898:	aa 27       	eor	r26, r26
     89a:	62 17       	cp	r22, r18
     89c:	73 07       	cpc	r23, r19
     89e:	84 07       	cpc	r24, r20
     8a0:	38 f0       	brcs	.+14     	; 0x8b0 <__divsf3_pse+0x26>
     8a2:	9f 5f       	subi	r25, 0xFF	; 255
     8a4:	5f 4f       	sbci	r21, 0xFF	; 255
     8a6:	22 0f       	add	r18, r18
     8a8:	33 1f       	adc	r19, r19
     8aa:	44 1f       	adc	r20, r20
     8ac:	aa 1f       	adc	r26, r26
     8ae:	a9 f3       	breq	.-22     	; 0x89a <__divsf3_pse+0x10>
     8b0:	33 d0       	rcall	.+102    	; 0x918 <__divsf3_pse+0x8e>
     8b2:	0e 2e       	mov	r0, r30
     8b4:	3a f0       	brmi	.+14     	; 0x8c4 <__divsf3_pse+0x3a>
     8b6:	e0 e8       	ldi	r30, 0x80	; 128
     8b8:	30 d0       	rcall	.+96     	; 0x91a <__divsf3_pse+0x90>
     8ba:	91 50       	subi	r25, 0x01	; 1
     8bc:	50 40       	sbci	r21, 0x00	; 0
     8be:	e6 95       	lsr	r30
     8c0:	00 1c       	adc	r0, r0
     8c2:	ca f7       	brpl	.-14     	; 0x8b6 <__divsf3_pse+0x2c>
     8c4:	29 d0       	rcall	.+82     	; 0x918 <__divsf3_pse+0x8e>
     8c6:	fe 2f       	mov	r31, r30
     8c8:	27 d0       	rcall	.+78     	; 0x918 <__divsf3_pse+0x8e>
     8ca:	66 0f       	add	r22, r22
     8cc:	77 1f       	adc	r23, r23
     8ce:	88 1f       	adc	r24, r24
     8d0:	bb 1f       	adc	r27, r27
     8d2:	26 17       	cp	r18, r22
     8d4:	37 07       	cpc	r19, r23
     8d6:	48 07       	cpc	r20, r24
     8d8:	ab 07       	cpc	r26, r27
     8da:	b0 e8       	ldi	r27, 0x80	; 128
     8dc:	09 f0       	breq	.+2      	; 0x8e0 <__divsf3_pse+0x56>
     8de:	bb 0b       	sbc	r27, r27
     8e0:	80 2d       	mov	r24, r0
     8e2:	bf 01       	movw	r22, r30
     8e4:	ff 27       	eor	r31, r31
     8e6:	93 58       	subi	r25, 0x83	; 131
     8e8:	5f 4f       	sbci	r21, 0xFF	; 255
     8ea:	2a f0       	brmi	.+10     	; 0x8f6 <__divsf3_pse+0x6c>
     8ec:	9e 3f       	cpi	r25, 0xFE	; 254
     8ee:	51 05       	cpc	r21, r1
     8f0:	68 f0       	brcs	.+26     	; 0x90c <__divsf3_pse+0x82>
     8f2:	b1 c0       	rjmp	.+354    	; 0xa56 <__fp_inf>
     8f4:	fb c0       	rjmp	.+502    	; 0xaec <__fp_szero>
     8f6:	5f 3f       	cpi	r21, 0xFF	; 255
     8f8:	ec f3       	brlt	.-6      	; 0x8f4 <__divsf3_pse+0x6a>
     8fa:	98 3e       	cpi	r25, 0xE8	; 232
     8fc:	dc f3       	brlt	.-10     	; 0x8f4 <__divsf3_pse+0x6a>
     8fe:	86 95       	lsr	r24
     900:	77 95       	ror	r23
     902:	67 95       	ror	r22
     904:	b7 95       	ror	r27
     906:	f7 95       	ror	r31
     908:	9f 5f       	subi	r25, 0xFF	; 255
     90a:	c9 f7       	brne	.-14     	; 0x8fe <__divsf3_pse+0x74>
     90c:	88 0f       	add	r24, r24
     90e:	91 1d       	adc	r25, r1
     910:	96 95       	lsr	r25
     912:	87 95       	ror	r24
     914:	97 f9       	bld	r25, 7
     916:	08 95       	ret
     918:	e1 e0       	ldi	r30, 0x01	; 1
     91a:	66 0f       	add	r22, r22
     91c:	77 1f       	adc	r23, r23
     91e:	88 1f       	adc	r24, r24
     920:	bb 1f       	adc	r27, r27
     922:	62 17       	cp	r22, r18
     924:	73 07       	cpc	r23, r19
     926:	84 07       	cpc	r24, r20
     928:	ba 07       	cpc	r27, r26
     92a:	20 f0       	brcs	.+8      	; 0x934 <__divsf3_pse+0xaa>
     92c:	62 1b       	sub	r22, r18
     92e:	73 0b       	sbc	r23, r19
     930:	84 0b       	sbc	r24, r20
     932:	ba 0b       	sbc	r27, r26
     934:	ee 1f       	adc	r30, r30
     936:	88 f7       	brcc	.-30     	; 0x91a <__divsf3_pse+0x90>
     938:	e0 95       	com	r30
     93a:	08 95       	ret

0000093c <__fixunssfsi>:
     93c:	bc d0       	rcall	.+376    	; 0xab6 <__fp_splitA>
     93e:	88 f0       	brcs	.+34     	; 0x962 <__fixunssfsi+0x26>
     940:	9f 57       	subi	r25, 0x7F	; 127
     942:	90 f0       	brcs	.+36     	; 0x968 <__fixunssfsi+0x2c>
     944:	b9 2f       	mov	r27, r25
     946:	99 27       	eor	r25, r25
     948:	b7 51       	subi	r27, 0x17	; 23
     94a:	a0 f0       	brcs	.+40     	; 0x974 <__fixunssfsi+0x38>
     94c:	d1 f0       	breq	.+52     	; 0x982 <__fixunssfsi+0x46>
     94e:	66 0f       	add	r22, r22
     950:	77 1f       	adc	r23, r23
     952:	88 1f       	adc	r24, r24
     954:	99 1f       	adc	r25, r25
     956:	1a f0       	brmi	.+6      	; 0x95e <__fixunssfsi+0x22>
     958:	ba 95       	dec	r27
     95a:	c9 f7       	brne	.-14     	; 0x94e <__fixunssfsi+0x12>
     95c:	12 c0       	rjmp	.+36     	; 0x982 <__fixunssfsi+0x46>
     95e:	b1 30       	cpi	r27, 0x01	; 1
     960:	81 f0       	breq	.+32     	; 0x982 <__fixunssfsi+0x46>
     962:	c3 d0       	rcall	.+390    	; 0xaea <__fp_zero>
     964:	b1 e0       	ldi	r27, 0x01	; 1
     966:	08 95       	ret
     968:	c0 c0       	rjmp	.+384    	; 0xaea <__fp_zero>
     96a:	67 2f       	mov	r22, r23
     96c:	78 2f       	mov	r23, r24
     96e:	88 27       	eor	r24, r24
     970:	b8 5f       	subi	r27, 0xF8	; 248
     972:	39 f0       	breq	.+14     	; 0x982 <__fixunssfsi+0x46>
     974:	b9 3f       	cpi	r27, 0xF9	; 249
     976:	cc f3       	brlt	.-14     	; 0x96a <__fixunssfsi+0x2e>
     978:	86 95       	lsr	r24
     97a:	77 95       	ror	r23
     97c:	67 95       	ror	r22
     97e:	b3 95       	inc	r27
     980:	d9 f7       	brne	.-10     	; 0x978 <__fixunssfsi+0x3c>
     982:	3e f4       	brtc	.+14     	; 0x992 <__fixunssfsi+0x56>
     984:	90 95       	com	r25
     986:	80 95       	com	r24
     988:	70 95       	com	r23
     98a:	61 95       	neg	r22
     98c:	7f 4f       	sbci	r23, 0xFF	; 255
     98e:	8f 4f       	sbci	r24, 0xFF	; 255
     990:	9f 4f       	sbci	r25, 0xFF	; 255
     992:	08 95       	ret

00000994 <__floatunsisf>:
     994:	e8 94       	clt
     996:	09 c0       	rjmp	.+18     	; 0x9aa <__floatsisf+0x12>

00000998 <__floatsisf>:
     998:	97 fb       	bst	r25, 7
     99a:	3e f4       	brtc	.+14     	; 0x9aa <__floatsisf+0x12>
     99c:	90 95       	com	r25
     99e:	80 95       	com	r24
     9a0:	70 95       	com	r23
     9a2:	61 95       	neg	r22
     9a4:	7f 4f       	sbci	r23, 0xFF	; 255
     9a6:	8f 4f       	sbci	r24, 0xFF	; 255
     9a8:	9f 4f       	sbci	r25, 0xFF	; 255
     9aa:	99 23       	and	r25, r25
     9ac:	a9 f0       	breq	.+42     	; 0x9d8 <__floatsisf+0x40>
     9ae:	f9 2f       	mov	r31, r25
     9b0:	96 e9       	ldi	r25, 0x96	; 150
     9b2:	bb 27       	eor	r27, r27
     9b4:	93 95       	inc	r25
     9b6:	f6 95       	lsr	r31
     9b8:	87 95       	ror	r24
     9ba:	77 95       	ror	r23
     9bc:	67 95       	ror	r22
     9be:	b7 95       	ror	r27
     9c0:	f1 11       	cpse	r31, r1
     9c2:	f8 cf       	rjmp	.-16     	; 0x9b4 <__floatsisf+0x1c>
     9c4:	fa f4       	brpl	.+62     	; 0xa04 <__floatsisf+0x6c>
     9c6:	bb 0f       	add	r27, r27
     9c8:	11 f4       	brne	.+4      	; 0x9ce <__floatsisf+0x36>
     9ca:	60 ff       	sbrs	r22, 0
     9cc:	1b c0       	rjmp	.+54     	; 0xa04 <__floatsisf+0x6c>
     9ce:	6f 5f       	subi	r22, 0xFF	; 255
     9d0:	7f 4f       	sbci	r23, 0xFF	; 255
     9d2:	8f 4f       	sbci	r24, 0xFF	; 255
     9d4:	9f 4f       	sbci	r25, 0xFF	; 255
     9d6:	16 c0       	rjmp	.+44     	; 0xa04 <__floatsisf+0x6c>
     9d8:	88 23       	and	r24, r24
     9da:	11 f0       	breq	.+4      	; 0x9e0 <__floatsisf+0x48>
     9dc:	96 e9       	ldi	r25, 0x96	; 150
     9de:	11 c0       	rjmp	.+34     	; 0xa02 <__floatsisf+0x6a>
     9e0:	77 23       	and	r23, r23
     9e2:	21 f0       	breq	.+8      	; 0x9ec <__floatsisf+0x54>
     9e4:	9e e8       	ldi	r25, 0x8E	; 142
     9e6:	87 2f       	mov	r24, r23
     9e8:	76 2f       	mov	r23, r22
     9ea:	05 c0       	rjmp	.+10     	; 0x9f6 <__floatsisf+0x5e>
     9ec:	66 23       	and	r22, r22
     9ee:	71 f0       	breq	.+28     	; 0xa0c <__floatsisf+0x74>
     9f0:	96 e8       	ldi	r25, 0x86	; 134
     9f2:	86 2f       	mov	r24, r22
     9f4:	70 e0       	ldi	r23, 0x00	; 0
     9f6:	60 e0       	ldi	r22, 0x00	; 0
     9f8:	2a f0       	brmi	.+10     	; 0xa04 <__floatsisf+0x6c>
     9fa:	9a 95       	dec	r25
     9fc:	66 0f       	add	r22, r22
     9fe:	77 1f       	adc	r23, r23
     a00:	88 1f       	adc	r24, r24
     a02:	da f7       	brpl	.-10     	; 0x9fa <__floatsisf+0x62>
     a04:	88 0f       	add	r24, r24
     a06:	96 95       	lsr	r25
     a08:	87 95       	ror	r24
     a0a:	97 f9       	bld	r25, 7
     a0c:	08 95       	ret

00000a0e <__fp_cmp>:
     a0e:	99 0f       	add	r25, r25
     a10:	00 08       	sbc	r0, r0
     a12:	55 0f       	add	r21, r21
     a14:	aa 0b       	sbc	r26, r26
     a16:	e0 e8       	ldi	r30, 0x80	; 128
     a18:	fe ef       	ldi	r31, 0xFE	; 254
     a1a:	16 16       	cp	r1, r22
     a1c:	17 06       	cpc	r1, r23
     a1e:	e8 07       	cpc	r30, r24
     a20:	f9 07       	cpc	r31, r25
     a22:	c0 f0       	brcs	.+48     	; 0xa54 <__fp_cmp+0x46>
     a24:	12 16       	cp	r1, r18
     a26:	13 06       	cpc	r1, r19
     a28:	e4 07       	cpc	r30, r20
     a2a:	f5 07       	cpc	r31, r21
     a2c:	98 f0       	brcs	.+38     	; 0xa54 <__fp_cmp+0x46>
     a2e:	62 1b       	sub	r22, r18
     a30:	73 0b       	sbc	r23, r19
     a32:	84 0b       	sbc	r24, r20
     a34:	95 0b       	sbc	r25, r21
     a36:	39 f4       	brne	.+14     	; 0xa46 <__fp_cmp+0x38>
     a38:	0a 26       	eor	r0, r26
     a3a:	61 f0       	breq	.+24     	; 0xa54 <__fp_cmp+0x46>
     a3c:	23 2b       	or	r18, r19
     a3e:	24 2b       	or	r18, r20
     a40:	25 2b       	or	r18, r21
     a42:	21 f4       	brne	.+8      	; 0xa4c <__fp_cmp+0x3e>
     a44:	08 95       	ret
     a46:	0a 26       	eor	r0, r26
     a48:	09 f4       	brne	.+2      	; 0xa4c <__fp_cmp+0x3e>
     a4a:	a1 40       	sbci	r26, 0x01	; 1
     a4c:	a6 95       	lsr	r26
     a4e:	8f ef       	ldi	r24, 0xFF	; 255
     a50:	81 1d       	adc	r24, r1
     a52:	81 1d       	adc	r24, r1
     a54:	08 95       	ret

00000a56 <__fp_inf>:
     a56:	97 f9       	bld	r25, 7
     a58:	9f 67       	ori	r25, 0x7F	; 127
     a5a:	80 e8       	ldi	r24, 0x80	; 128
     a5c:	70 e0       	ldi	r23, 0x00	; 0
     a5e:	60 e0       	ldi	r22, 0x00	; 0
     a60:	08 95       	ret

00000a62 <__fp_nan>:
     a62:	9f ef       	ldi	r25, 0xFF	; 255
     a64:	80 ec       	ldi	r24, 0xC0	; 192
     a66:	08 95       	ret

00000a68 <__fp_pscA>:
     a68:	00 24       	eor	r0, r0
     a6a:	0a 94       	dec	r0
     a6c:	16 16       	cp	r1, r22
     a6e:	17 06       	cpc	r1, r23
     a70:	18 06       	cpc	r1, r24
     a72:	09 06       	cpc	r0, r25
     a74:	08 95       	ret

00000a76 <__fp_pscB>:
     a76:	00 24       	eor	r0, r0
     a78:	0a 94       	dec	r0
     a7a:	12 16       	cp	r1, r18
     a7c:	13 06       	cpc	r1, r19
     a7e:	14 06       	cpc	r1, r20
     a80:	05 06       	cpc	r0, r21
     a82:	08 95       	ret

00000a84 <__fp_round>:
     a84:	09 2e       	mov	r0, r25
     a86:	03 94       	inc	r0
     a88:	00 0c       	add	r0, r0
     a8a:	11 f4       	brne	.+4      	; 0xa90 <__fp_round+0xc>
     a8c:	88 23       	and	r24, r24
     a8e:	52 f0       	brmi	.+20     	; 0xaa4 <__fp_round+0x20>
     a90:	bb 0f       	add	r27, r27
     a92:	40 f4       	brcc	.+16     	; 0xaa4 <__fp_round+0x20>
     a94:	bf 2b       	or	r27, r31
     a96:	11 f4       	brne	.+4      	; 0xa9c <__fp_round+0x18>
     a98:	60 ff       	sbrs	r22, 0
     a9a:	04 c0       	rjmp	.+8      	; 0xaa4 <__fp_round+0x20>
     a9c:	6f 5f       	subi	r22, 0xFF	; 255
     a9e:	7f 4f       	sbci	r23, 0xFF	; 255
     aa0:	8f 4f       	sbci	r24, 0xFF	; 255
     aa2:	9f 4f       	sbci	r25, 0xFF	; 255
     aa4:	08 95       	ret

00000aa6 <__fp_split3>:
     aa6:	57 fd       	sbrc	r21, 7
     aa8:	90 58       	subi	r25, 0x80	; 128
     aaa:	44 0f       	add	r20, r20
     aac:	55 1f       	adc	r21, r21
     aae:	59 f0       	breq	.+22     	; 0xac6 <__fp_splitA+0x10>
     ab0:	5f 3f       	cpi	r21, 0xFF	; 255
     ab2:	71 f0       	breq	.+28     	; 0xad0 <__fp_splitA+0x1a>
     ab4:	47 95       	ror	r20

00000ab6 <__fp_splitA>:
     ab6:	88 0f       	add	r24, r24
     ab8:	97 fb       	bst	r25, 7
     aba:	99 1f       	adc	r25, r25
     abc:	61 f0       	breq	.+24     	; 0xad6 <__fp_splitA+0x20>
     abe:	9f 3f       	cpi	r25, 0xFF	; 255
     ac0:	79 f0       	breq	.+30     	; 0xae0 <__fp_splitA+0x2a>
     ac2:	87 95       	ror	r24
     ac4:	08 95       	ret
     ac6:	12 16       	cp	r1, r18
     ac8:	13 06       	cpc	r1, r19
     aca:	14 06       	cpc	r1, r20
     acc:	55 1f       	adc	r21, r21
     ace:	f2 cf       	rjmp	.-28     	; 0xab4 <__fp_split3+0xe>
     ad0:	46 95       	lsr	r20
     ad2:	f1 df       	rcall	.-30     	; 0xab6 <__fp_splitA>
     ad4:	08 c0       	rjmp	.+16     	; 0xae6 <__fp_splitA+0x30>
     ad6:	16 16       	cp	r1, r22
     ad8:	17 06       	cpc	r1, r23
     ada:	18 06       	cpc	r1, r24
     adc:	99 1f       	adc	r25, r25
     ade:	f1 cf       	rjmp	.-30     	; 0xac2 <__fp_splitA+0xc>
     ae0:	86 95       	lsr	r24
     ae2:	71 05       	cpc	r23, r1
     ae4:	61 05       	cpc	r22, r1
     ae6:	08 94       	sec
     ae8:	08 95       	ret

00000aea <__fp_zero>:
     aea:	e8 94       	clt

00000aec <__fp_szero>:
     aec:	bb 27       	eor	r27, r27
     aee:	66 27       	eor	r22, r22
     af0:	77 27       	eor	r23, r23
     af2:	cb 01       	movw	r24, r22
     af4:	97 f9       	bld	r25, 7
     af6:	08 95       	ret

00000af8 <__gesf2>:
     af8:	8a df       	rcall	.-236    	; 0xa0e <__fp_cmp>
     afa:	08 f4       	brcc	.+2      	; 0xafe <__gesf2+0x6>
     afc:	8f ef       	ldi	r24, 0xFF	; 255
     afe:	08 95       	ret

00000b00 <__mulsf3>:
     b00:	0a d0       	rcall	.+20     	; 0xb16 <__mulsf3x>
     b02:	c0 cf       	rjmp	.-128    	; 0xa84 <__fp_round>
     b04:	b1 df       	rcall	.-158    	; 0xa68 <__fp_pscA>
     b06:	28 f0       	brcs	.+10     	; 0xb12 <__mulsf3+0x12>
     b08:	b6 df       	rcall	.-148    	; 0xa76 <__fp_pscB>
     b0a:	18 f0       	brcs	.+6      	; 0xb12 <__mulsf3+0x12>
     b0c:	95 23       	and	r25, r21
     b0e:	09 f0       	breq	.+2      	; 0xb12 <__mulsf3+0x12>
     b10:	a2 cf       	rjmp	.-188    	; 0xa56 <__fp_inf>
     b12:	a7 cf       	rjmp	.-178    	; 0xa62 <__fp_nan>
     b14:	eb cf       	rjmp	.-42     	; 0xaec <__fp_szero>

00000b16 <__mulsf3x>:
     b16:	c7 df       	rcall	.-114    	; 0xaa6 <__fp_split3>
     b18:	a8 f3       	brcs	.-22     	; 0xb04 <__mulsf3+0x4>

00000b1a <__mulsf3_pse>:
     b1a:	99 23       	and	r25, r25
     b1c:	d9 f3       	breq	.-10     	; 0xb14 <__mulsf3+0x14>
     b1e:	55 23       	and	r21, r21
     b20:	c9 f3       	breq	.-14     	; 0xb14 <__mulsf3+0x14>
     b22:	95 0f       	add	r25, r21
     b24:	50 e0       	ldi	r21, 0x00	; 0
     b26:	55 1f       	adc	r21, r21
     b28:	aa 27       	eor	r26, r26
     b2a:	ee 27       	eor	r30, r30
     b2c:	ff 27       	eor	r31, r31
     b2e:	bb 27       	eor	r27, r27
     b30:	00 24       	eor	r0, r0
     b32:	08 94       	sec
     b34:	67 95       	ror	r22
     b36:	20 f4       	brcc	.+8      	; 0xb40 <__mulsf3_pse+0x26>
     b38:	e2 0f       	add	r30, r18
     b3a:	f3 1f       	adc	r31, r19
     b3c:	b4 1f       	adc	r27, r20
     b3e:	0a 1e       	adc	r0, r26
     b40:	22 0f       	add	r18, r18
     b42:	33 1f       	adc	r19, r19
     b44:	44 1f       	adc	r20, r20
     b46:	aa 1f       	adc	r26, r26
     b48:	66 95       	lsr	r22
     b4a:	a9 f7       	brne	.-22     	; 0xb36 <__mulsf3_pse+0x1c>
     b4c:	77 95       	ror	r23
     b4e:	30 f4       	brcc	.+12     	; 0xb5c <__mulsf3_pse+0x42>
     b50:	f3 0f       	add	r31, r19
     b52:	b4 1f       	adc	r27, r20
     b54:	0a 1e       	adc	r0, r26
     b56:	12 1e       	adc	r1, r18
     b58:	08 f4       	brcc	.+2      	; 0xb5c <__mulsf3_pse+0x42>
     b5a:	63 95       	inc	r22
     b5c:	33 0f       	add	r19, r19
     b5e:	44 1f       	adc	r20, r20
     b60:	aa 1f       	adc	r26, r26
     b62:	22 1f       	adc	r18, r18
     b64:	76 95       	lsr	r23
     b66:	99 f7       	brne	.-26     	; 0xb4e <__mulsf3_pse+0x34>
     b68:	87 95       	ror	r24
     b6a:	20 f4       	brcc	.+8      	; 0xb74 <__mulsf3_pse+0x5a>
     b6c:	b4 0f       	add	r27, r20
     b6e:	0a 1e       	adc	r0, r26
     b70:	12 1e       	adc	r1, r18
     b72:	63 1f       	adc	r22, r19
     b74:	44 0f       	add	r20, r20
     b76:	aa 1f       	adc	r26, r26
     b78:	22 1f       	adc	r18, r18
     b7a:	33 1f       	adc	r19, r19
     b7c:	86 95       	lsr	r24
     b7e:	a9 f7       	brne	.-22     	; 0xb6a <__mulsf3_pse+0x50>
     b80:	86 2f       	mov	r24, r22
     b82:	71 2d       	mov	r23, r1
     b84:	60 2d       	mov	r22, r0
     b86:	11 24       	eor	r1, r1
     b88:	9f 57       	subi	r25, 0x7F	; 127
     b8a:	50 40       	sbci	r21, 0x00	; 0
     b8c:	8a f0       	brmi	.+34     	; 0xbb0 <__mulsf3_pse+0x96>
     b8e:	e1 f0       	breq	.+56     	; 0xbc8 <__mulsf3_pse+0xae>
     b90:	88 23       	and	r24, r24
     b92:	4a f0       	brmi	.+18     	; 0xba6 <__mulsf3_pse+0x8c>
     b94:	ee 0f       	add	r30, r30
     b96:	ff 1f       	adc	r31, r31
     b98:	bb 1f       	adc	r27, r27
     b9a:	66 1f       	adc	r22, r22
     b9c:	77 1f       	adc	r23, r23
     b9e:	88 1f       	adc	r24, r24
     ba0:	91 50       	subi	r25, 0x01	; 1
     ba2:	50 40       	sbci	r21, 0x00	; 0
     ba4:	a9 f7       	brne	.-22     	; 0xb90 <__mulsf3_pse+0x76>
     ba6:	9e 3f       	cpi	r25, 0xFE	; 254
     ba8:	51 05       	cpc	r21, r1
     baa:	70 f0       	brcs	.+28     	; 0xbc8 <__mulsf3_pse+0xae>
     bac:	54 cf       	rjmp	.-344    	; 0xa56 <__fp_inf>
     bae:	9e cf       	rjmp	.-196    	; 0xaec <__fp_szero>
     bb0:	5f 3f       	cpi	r21, 0xFF	; 255
     bb2:	ec f3       	brlt	.-6      	; 0xbae <__mulsf3_pse+0x94>
     bb4:	98 3e       	cpi	r25, 0xE8	; 232
     bb6:	dc f3       	brlt	.-10     	; 0xbae <__mulsf3_pse+0x94>
     bb8:	86 95       	lsr	r24
     bba:	77 95       	ror	r23
     bbc:	67 95       	ror	r22
     bbe:	b7 95       	ror	r27
     bc0:	f7 95       	ror	r31
     bc2:	e7 95       	ror	r30
     bc4:	9f 5f       	subi	r25, 0xFF	; 255
     bc6:	c1 f7       	brne	.-16     	; 0xbb8 <__mulsf3_pse+0x9e>
     bc8:	fe 2b       	or	r31, r30
     bca:	88 0f       	add	r24, r24
     bcc:	91 1d       	adc	r25, r1
     bce:	96 95       	lsr	r25
     bd0:	87 95       	ror	r24
     bd2:	97 f9       	bld	r25, 7
     bd4:	08 95       	ret

00000bd6 <round>:
     bd6:	6f df       	rcall	.-290    	; 0xab6 <__fp_splitA>
     bd8:	e0 f0       	brcs	.+56     	; 0xc12 <round+0x3c>
     bda:	9e 37       	cpi	r25, 0x7E	; 126
     bdc:	d8 f0       	brcs	.+54     	; 0xc14 <round+0x3e>
     bde:	96 39       	cpi	r25, 0x96	; 150
     be0:	b8 f4       	brcc	.+46     	; 0xc10 <round+0x3a>
     be2:	9e 38       	cpi	r25, 0x8E	; 142
     be4:	48 f4       	brcc	.+18     	; 0xbf8 <round+0x22>
     be6:	67 2f       	mov	r22, r23
     be8:	78 2f       	mov	r23, r24
     bea:	88 27       	eor	r24, r24
     bec:	98 5f       	subi	r25, 0xF8	; 248
     bee:	f9 cf       	rjmp	.-14     	; 0xbe2 <round+0xc>
     bf0:	86 95       	lsr	r24
     bf2:	77 95       	ror	r23
     bf4:	67 95       	ror	r22
     bf6:	93 95       	inc	r25
     bf8:	95 39       	cpi	r25, 0x95	; 149
     bfa:	d0 f3       	brcs	.-12     	; 0xbf0 <round+0x1a>
     bfc:	b6 2f       	mov	r27, r22
     bfe:	b1 70       	andi	r27, 0x01	; 1
     c00:	6b 0f       	add	r22, r27
     c02:	71 1d       	adc	r23, r1
     c04:	81 1d       	adc	r24, r1
     c06:	20 f4       	brcc	.+8      	; 0xc10 <round+0x3a>
     c08:	87 95       	ror	r24
     c0a:	77 95       	ror	r23
     c0c:	67 95       	ror	r22
     c0e:	93 95       	inc	r25
     c10:	02 c0       	rjmp	.+4      	; 0xc16 <__fp_mintl>
     c12:	1c c0       	rjmp	.+56     	; 0xc4c <__fp_mpack>
     c14:	6b cf       	rjmp	.-298    	; 0xaec <__fp_szero>

00000c16 <__fp_mintl>:
     c16:	88 23       	and	r24, r24
     c18:	71 f4       	brne	.+28     	; 0xc36 <__fp_mintl+0x20>
     c1a:	77 23       	and	r23, r23
     c1c:	21 f0       	breq	.+8      	; 0xc26 <__fp_mintl+0x10>
     c1e:	98 50       	subi	r25, 0x08	; 8
     c20:	87 2b       	or	r24, r23
     c22:	76 2f       	mov	r23, r22
     c24:	07 c0       	rjmp	.+14     	; 0xc34 <__fp_mintl+0x1e>
     c26:	66 23       	and	r22, r22
     c28:	11 f4       	brne	.+4      	; 0xc2e <__fp_mintl+0x18>
     c2a:	99 27       	eor	r25, r25
     c2c:	0d c0       	rjmp	.+26     	; 0xc48 <__fp_mintl+0x32>
     c2e:	90 51       	subi	r25, 0x10	; 16
     c30:	86 2b       	or	r24, r22
     c32:	70 e0       	ldi	r23, 0x00	; 0
     c34:	60 e0       	ldi	r22, 0x00	; 0
     c36:	2a f0       	brmi	.+10     	; 0xc42 <__fp_mintl+0x2c>
     c38:	9a 95       	dec	r25
     c3a:	66 0f       	add	r22, r22
     c3c:	77 1f       	adc	r23, r23
     c3e:	88 1f       	adc	r24, r24
     c40:	da f7       	brpl	.-10     	; 0xc38 <__fp_mintl+0x22>
     c42:	88 0f       	add	r24, r24
     c44:	96 95       	lsr	r25
     c46:	87 95       	ror	r24
     c48:	97 f9       	bld	r25, 7
     c4a:	08 95       	ret

00000c4c <__fp_mpack>:
     c4c:	9f 3f       	cpi	r25, 0xFF	; 255
     c4e:	31 f0       	breq	.+12     	; 0xc5c <__fp_mpack_finite+0xc>

00000c50 <__fp_mpack_finite>:
     c50:	91 50       	subi	r25, 0x01	; 1
     c52:	20 f4       	brcc	.+8      	; 0xc5c <__fp_mpack_finite+0xc>
     c54:	87 95       	ror	r24
     c56:	77 95       	ror	r23
     c58:	67 95       	ror	r22
     c5a:	b7 95       	ror	r27
     c5c:	88 0f       	add	r24, r24
     c5e:	91 1d       	adc	r25, r1
     c60:	96 95       	lsr	r25
     c62:	87 95       	ror	r24
     c64:	97 f9       	bld	r25, 7
     c66:	08 95       	ret

00000c68 <sprintf>:
     c68:	ae e0       	ldi	r26, 0x0E	; 14
     c6a:	b0 e0       	ldi	r27, 0x00	; 0
     c6c:	e9 e3       	ldi	r30, 0x39	; 57
     c6e:	f6 e0       	ldi	r31, 0x06	; 6
     c70:	a3 c2       	rjmp	.+1350   	; 0x11b8 <__prologue_saves__+0x1c>
     c72:	0d 89       	ldd	r16, Y+21	; 0x15
     c74:	1e 89       	ldd	r17, Y+22	; 0x16
     c76:	86 e0       	ldi	r24, 0x06	; 6
     c78:	8c 83       	std	Y+4, r24	; 0x04
     c7a:	1a 83       	std	Y+2, r17	; 0x02
     c7c:	09 83       	std	Y+1, r16	; 0x01
     c7e:	8f ef       	ldi	r24, 0xFF	; 255
     c80:	9f e7       	ldi	r25, 0x7F	; 127
     c82:	9e 83       	std	Y+6, r25	; 0x06
     c84:	8d 83       	std	Y+5, r24	; 0x05
     c86:	ae 01       	movw	r20, r28
     c88:	47 5e       	subi	r20, 0xE7	; 231
     c8a:	5f 4f       	sbci	r21, 0xFF	; 255
     c8c:	6f 89       	ldd	r22, Y+23	; 0x17
     c8e:	78 8d       	ldd	r23, Y+24	; 0x18
     c90:	ce 01       	movw	r24, r28
     c92:	01 96       	adiw	r24, 0x01	; 1
     c94:	09 d0       	rcall	.+18     	; 0xca8 <vfprintf>
     c96:	2f 81       	ldd	r18, Y+7	; 0x07
     c98:	38 85       	ldd	r19, Y+8	; 0x08
     c9a:	f8 01       	movw	r30, r16
     c9c:	e2 0f       	add	r30, r18
     c9e:	f3 1f       	adc	r31, r19
     ca0:	10 82       	st	Z, r1
     ca2:	2e 96       	adiw	r28, 0x0e	; 14
     ca4:	e4 e0       	ldi	r30, 0x04	; 4
     ca6:	a4 c2       	rjmp	.+1352   	; 0x11f0 <__epilogue_restores__+0x1c>

00000ca8 <vfprintf>:
     ca8:	ac e0       	ldi	r26, 0x0C	; 12
     caa:	b0 e0       	ldi	r27, 0x00	; 0
     cac:	e9 e5       	ldi	r30, 0x59	; 89
     cae:	f6 e0       	ldi	r31, 0x06	; 6
     cb0:	75 c2       	rjmp	.+1258   	; 0x119c <__prologue_saves__>
     cb2:	7c 01       	movw	r14, r24
     cb4:	6b 01       	movw	r12, r22
     cb6:	8a 01       	movw	r16, r20
     cb8:	fc 01       	movw	r30, r24
     cba:	17 82       	std	Z+7, r1	; 0x07
     cbc:	16 82       	std	Z+6, r1	; 0x06
     cbe:	83 81       	ldd	r24, Z+3	; 0x03
     cc0:	81 ff       	sbrs	r24, 1
     cc2:	b0 c1       	rjmp	.+864    	; 0x1024 <vfprintf+0x37c>
     cc4:	ce 01       	movw	r24, r28
     cc6:	01 96       	adiw	r24, 0x01	; 1
     cc8:	4c 01       	movw	r8, r24
     cca:	f7 01       	movw	r30, r14
     ccc:	93 81       	ldd	r25, Z+3	; 0x03
     cce:	f6 01       	movw	r30, r12
     cd0:	93 fd       	sbrc	r25, 3
     cd2:	85 91       	lpm	r24, Z+
     cd4:	93 ff       	sbrs	r25, 3
     cd6:	81 91       	ld	r24, Z+
     cd8:	6f 01       	movw	r12, r30
     cda:	88 23       	and	r24, r24
     cdc:	09 f4       	brne	.+2      	; 0xce0 <vfprintf+0x38>
     cde:	9e c1       	rjmp	.+828    	; 0x101c <vfprintf+0x374>
     ce0:	85 32       	cpi	r24, 0x25	; 37
     ce2:	39 f4       	brne	.+14     	; 0xcf2 <vfprintf+0x4a>
     ce4:	93 fd       	sbrc	r25, 3
     ce6:	85 91       	lpm	r24, Z+
     ce8:	93 ff       	sbrs	r25, 3
     cea:	81 91       	ld	r24, Z+
     cec:	6f 01       	movw	r12, r30
     cee:	85 32       	cpi	r24, 0x25	; 37
     cf0:	21 f4       	brne	.+8      	; 0xcfa <vfprintf+0x52>
     cf2:	b7 01       	movw	r22, r14
     cf4:	90 e0       	ldi	r25, 0x00	; 0
     cf6:	b1 d1       	rcall	.+866    	; 0x105a <fputc>
     cf8:	e8 cf       	rjmp	.-48     	; 0xcca <vfprintf+0x22>
     cfa:	51 2c       	mov	r5, r1
     cfc:	31 2c       	mov	r3, r1
     cfe:	20 e0       	ldi	r18, 0x00	; 0
     d00:	20 32       	cpi	r18, 0x20	; 32
     d02:	a0 f4       	brcc	.+40     	; 0xd2c <vfprintf+0x84>
     d04:	8b 32       	cpi	r24, 0x2B	; 43
     d06:	69 f0       	breq	.+26     	; 0xd22 <vfprintf+0x7a>
     d08:	30 f4       	brcc	.+12     	; 0xd16 <vfprintf+0x6e>
     d0a:	80 32       	cpi	r24, 0x20	; 32
     d0c:	59 f0       	breq	.+22     	; 0xd24 <vfprintf+0x7c>
     d0e:	83 32       	cpi	r24, 0x23	; 35
     d10:	69 f4       	brne	.+26     	; 0xd2c <vfprintf+0x84>
     d12:	20 61       	ori	r18, 0x10	; 16
     d14:	2c c0       	rjmp	.+88     	; 0xd6e <vfprintf+0xc6>
     d16:	8d 32       	cpi	r24, 0x2D	; 45
     d18:	39 f0       	breq	.+14     	; 0xd28 <vfprintf+0x80>
     d1a:	80 33       	cpi	r24, 0x30	; 48
     d1c:	39 f4       	brne	.+14     	; 0xd2c <vfprintf+0x84>
     d1e:	21 60       	ori	r18, 0x01	; 1
     d20:	26 c0       	rjmp	.+76     	; 0xd6e <vfprintf+0xc6>
     d22:	22 60       	ori	r18, 0x02	; 2
     d24:	24 60       	ori	r18, 0x04	; 4
     d26:	23 c0       	rjmp	.+70     	; 0xd6e <vfprintf+0xc6>
     d28:	28 60       	ori	r18, 0x08	; 8
     d2a:	21 c0       	rjmp	.+66     	; 0xd6e <vfprintf+0xc6>
     d2c:	27 fd       	sbrc	r18, 7
     d2e:	27 c0       	rjmp	.+78     	; 0xd7e <vfprintf+0xd6>
     d30:	30 ed       	ldi	r19, 0xD0	; 208
     d32:	38 0f       	add	r19, r24
     d34:	3a 30       	cpi	r19, 0x0A	; 10
     d36:	78 f4       	brcc	.+30     	; 0xd56 <vfprintf+0xae>
     d38:	26 ff       	sbrs	r18, 6
     d3a:	06 c0       	rjmp	.+12     	; 0xd48 <vfprintf+0xa0>
     d3c:	85 2d       	mov	r24, r5
     d3e:	6a e0       	ldi	r22, 0x0A	; 10
     d40:	24 d2       	rcall	.+1096   	; 0x118a <__mulqi3>
     d42:	58 2e       	mov	r5, r24
     d44:	53 0e       	add	r5, r19
     d46:	13 c0       	rjmp	.+38     	; 0xd6e <vfprintf+0xc6>
     d48:	83 2d       	mov	r24, r3
     d4a:	6a e0       	ldi	r22, 0x0A	; 10
     d4c:	1e d2       	rcall	.+1084   	; 0x118a <__mulqi3>
     d4e:	38 2e       	mov	r3, r24
     d50:	33 0e       	add	r3, r19
     d52:	20 62       	ori	r18, 0x20	; 32
     d54:	0c c0       	rjmp	.+24     	; 0xd6e <vfprintf+0xc6>
     d56:	8e 32       	cpi	r24, 0x2E	; 46
     d58:	21 f4       	brne	.+8      	; 0xd62 <vfprintf+0xba>
     d5a:	26 fd       	sbrc	r18, 6
     d5c:	5f c1       	rjmp	.+702    	; 0x101c <vfprintf+0x374>
     d5e:	20 64       	ori	r18, 0x40	; 64
     d60:	06 c0       	rjmp	.+12     	; 0xd6e <vfprintf+0xc6>
     d62:	8c 36       	cpi	r24, 0x6C	; 108
     d64:	11 f4       	brne	.+4      	; 0xd6a <vfprintf+0xc2>
     d66:	20 68       	ori	r18, 0x80	; 128
     d68:	02 c0       	rjmp	.+4      	; 0xd6e <vfprintf+0xc6>
     d6a:	88 36       	cpi	r24, 0x68	; 104
     d6c:	41 f4       	brne	.+16     	; 0xd7e <vfprintf+0xd6>
     d6e:	f6 01       	movw	r30, r12
     d70:	93 fd       	sbrc	r25, 3
     d72:	85 91       	lpm	r24, Z+
     d74:	93 ff       	sbrs	r25, 3
     d76:	81 91       	ld	r24, Z+
     d78:	6f 01       	movw	r12, r30
     d7a:	81 11       	cpse	r24, r1
     d7c:	c1 cf       	rjmp	.-126    	; 0xd00 <vfprintf+0x58>
     d7e:	98 2f       	mov	r25, r24
     d80:	9f 7d       	andi	r25, 0xDF	; 223
     d82:	95 54       	subi	r25, 0x45	; 69
     d84:	93 30       	cpi	r25, 0x03	; 3
     d86:	28 f4       	brcc	.+10     	; 0xd92 <vfprintf+0xea>
     d88:	0c 5f       	subi	r16, 0xFC	; 252
     d8a:	1f 4f       	sbci	r17, 0xFF	; 255
     d8c:	ff e3       	ldi	r31, 0x3F	; 63
     d8e:	f9 83       	std	Y+1, r31	; 0x01
     d90:	0d c0       	rjmp	.+26     	; 0xdac <vfprintf+0x104>
     d92:	83 36       	cpi	r24, 0x63	; 99
     d94:	31 f0       	breq	.+12     	; 0xda2 <vfprintf+0xfa>
     d96:	83 37       	cpi	r24, 0x73	; 115
     d98:	71 f0       	breq	.+28     	; 0xdb6 <vfprintf+0x10e>
     d9a:	83 35       	cpi	r24, 0x53	; 83
     d9c:	09 f0       	breq	.+2      	; 0xda0 <vfprintf+0xf8>
     d9e:	57 c0       	rjmp	.+174    	; 0xe4e <vfprintf+0x1a6>
     da0:	21 c0       	rjmp	.+66     	; 0xde4 <vfprintf+0x13c>
     da2:	f8 01       	movw	r30, r16
     da4:	80 81       	ld	r24, Z
     da6:	89 83       	std	Y+1, r24	; 0x01
     da8:	0e 5f       	subi	r16, 0xFE	; 254
     daa:	1f 4f       	sbci	r17, 0xFF	; 255
     dac:	44 24       	eor	r4, r4
     dae:	43 94       	inc	r4
     db0:	51 2c       	mov	r5, r1
     db2:	54 01       	movw	r10, r8
     db4:	14 c0       	rjmp	.+40     	; 0xdde <vfprintf+0x136>
     db6:	38 01       	movw	r6, r16
     db8:	f2 e0       	ldi	r31, 0x02	; 2
     dba:	6f 0e       	add	r6, r31
     dbc:	71 1c       	adc	r7, r1
     dbe:	f8 01       	movw	r30, r16
     dc0:	a0 80       	ld	r10, Z
     dc2:	b1 80       	ldd	r11, Z+1	; 0x01
     dc4:	26 ff       	sbrs	r18, 6
     dc6:	03 c0       	rjmp	.+6      	; 0xdce <vfprintf+0x126>
     dc8:	65 2d       	mov	r22, r5
     dca:	70 e0       	ldi	r23, 0x00	; 0
     dcc:	02 c0       	rjmp	.+4      	; 0xdd2 <vfprintf+0x12a>
     dce:	6f ef       	ldi	r22, 0xFF	; 255
     dd0:	7f ef       	ldi	r23, 0xFF	; 255
     dd2:	c5 01       	movw	r24, r10
     dd4:	2c 87       	std	Y+12, r18	; 0x0c
     dd6:	36 d1       	rcall	.+620    	; 0x1044 <strnlen>
     dd8:	2c 01       	movw	r4, r24
     dda:	83 01       	movw	r16, r6
     ddc:	2c 85       	ldd	r18, Y+12	; 0x0c
     dde:	2f 77       	andi	r18, 0x7F	; 127
     de0:	22 2e       	mov	r2, r18
     de2:	16 c0       	rjmp	.+44     	; 0xe10 <vfprintf+0x168>
     de4:	38 01       	movw	r6, r16
     de6:	f2 e0       	ldi	r31, 0x02	; 2
     de8:	6f 0e       	add	r6, r31
     dea:	71 1c       	adc	r7, r1
     dec:	f8 01       	movw	r30, r16
     dee:	a0 80       	ld	r10, Z
     df0:	b1 80       	ldd	r11, Z+1	; 0x01
     df2:	26 ff       	sbrs	r18, 6
     df4:	03 c0       	rjmp	.+6      	; 0xdfc <vfprintf+0x154>
     df6:	65 2d       	mov	r22, r5
     df8:	70 e0       	ldi	r23, 0x00	; 0
     dfa:	02 c0       	rjmp	.+4      	; 0xe00 <vfprintf+0x158>
     dfc:	6f ef       	ldi	r22, 0xFF	; 255
     dfe:	7f ef       	ldi	r23, 0xFF	; 255
     e00:	c5 01       	movw	r24, r10
     e02:	2c 87       	std	Y+12, r18	; 0x0c
     e04:	14 d1       	rcall	.+552    	; 0x102e <strnlen_P>
     e06:	2c 01       	movw	r4, r24
     e08:	2c 85       	ldd	r18, Y+12	; 0x0c
     e0a:	20 68       	ori	r18, 0x80	; 128
     e0c:	22 2e       	mov	r2, r18
     e0e:	83 01       	movw	r16, r6
     e10:	23 fc       	sbrc	r2, 3
     e12:	19 c0       	rjmp	.+50     	; 0xe46 <vfprintf+0x19e>
     e14:	83 2d       	mov	r24, r3
     e16:	90 e0       	ldi	r25, 0x00	; 0
     e18:	48 16       	cp	r4, r24
     e1a:	59 06       	cpc	r5, r25
     e1c:	a0 f4       	brcc	.+40     	; 0xe46 <vfprintf+0x19e>
     e1e:	b7 01       	movw	r22, r14
     e20:	80 e2       	ldi	r24, 0x20	; 32
     e22:	90 e0       	ldi	r25, 0x00	; 0
     e24:	1a d1       	rcall	.+564    	; 0x105a <fputc>
     e26:	3a 94       	dec	r3
     e28:	f5 cf       	rjmp	.-22     	; 0xe14 <vfprintf+0x16c>
     e2a:	f5 01       	movw	r30, r10
     e2c:	27 fc       	sbrc	r2, 7
     e2e:	85 91       	lpm	r24, Z+
     e30:	27 fe       	sbrs	r2, 7
     e32:	81 91       	ld	r24, Z+
     e34:	5f 01       	movw	r10, r30
     e36:	b7 01       	movw	r22, r14
     e38:	90 e0       	ldi	r25, 0x00	; 0
     e3a:	0f d1       	rcall	.+542    	; 0x105a <fputc>
     e3c:	31 10       	cpse	r3, r1
     e3e:	3a 94       	dec	r3
     e40:	f1 e0       	ldi	r31, 0x01	; 1
     e42:	4f 1a       	sub	r4, r31
     e44:	51 08       	sbc	r5, r1
     e46:	41 14       	cp	r4, r1
     e48:	51 04       	cpc	r5, r1
     e4a:	79 f7       	brne	.-34     	; 0xe2a <vfprintf+0x182>
     e4c:	de c0       	rjmp	.+444    	; 0x100a <vfprintf+0x362>
     e4e:	84 36       	cpi	r24, 0x64	; 100
     e50:	11 f0       	breq	.+4      	; 0xe56 <vfprintf+0x1ae>
     e52:	89 36       	cpi	r24, 0x69	; 105
     e54:	31 f5       	brne	.+76     	; 0xea2 <vfprintf+0x1fa>
     e56:	f8 01       	movw	r30, r16
     e58:	27 ff       	sbrs	r18, 7
     e5a:	07 c0       	rjmp	.+14     	; 0xe6a <vfprintf+0x1c2>
     e5c:	60 81       	ld	r22, Z
     e5e:	71 81       	ldd	r23, Z+1	; 0x01
     e60:	82 81       	ldd	r24, Z+2	; 0x02
     e62:	93 81       	ldd	r25, Z+3	; 0x03
     e64:	0c 5f       	subi	r16, 0xFC	; 252
     e66:	1f 4f       	sbci	r17, 0xFF	; 255
     e68:	08 c0       	rjmp	.+16     	; 0xe7a <vfprintf+0x1d2>
     e6a:	60 81       	ld	r22, Z
     e6c:	71 81       	ldd	r23, Z+1	; 0x01
     e6e:	07 2e       	mov	r0, r23
     e70:	00 0c       	add	r0, r0
     e72:	88 0b       	sbc	r24, r24
     e74:	99 0b       	sbc	r25, r25
     e76:	0e 5f       	subi	r16, 0xFE	; 254
     e78:	1f 4f       	sbci	r17, 0xFF	; 255
     e7a:	2f 76       	andi	r18, 0x6F	; 111
     e7c:	72 2e       	mov	r7, r18
     e7e:	97 ff       	sbrs	r25, 7
     e80:	09 c0       	rjmp	.+18     	; 0xe94 <vfprintf+0x1ec>
     e82:	90 95       	com	r25
     e84:	80 95       	com	r24
     e86:	70 95       	com	r23
     e88:	61 95       	neg	r22
     e8a:	7f 4f       	sbci	r23, 0xFF	; 255
     e8c:	8f 4f       	sbci	r24, 0xFF	; 255
     e8e:	9f 4f       	sbci	r25, 0xFF	; 255
     e90:	20 68       	ori	r18, 0x80	; 128
     e92:	72 2e       	mov	r7, r18
     e94:	2a e0       	ldi	r18, 0x0A	; 10
     e96:	30 e0       	ldi	r19, 0x00	; 0
     e98:	a4 01       	movw	r20, r8
     e9a:	17 d1       	rcall	.+558    	; 0x10ca <__ultoa_invert>
     e9c:	a8 2e       	mov	r10, r24
     e9e:	a8 18       	sub	r10, r8
     ea0:	43 c0       	rjmp	.+134    	; 0xf28 <vfprintf+0x280>
     ea2:	85 37       	cpi	r24, 0x75	; 117
     ea4:	29 f4       	brne	.+10     	; 0xeb0 <vfprintf+0x208>
     ea6:	2f 7e       	andi	r18, 0xEF	; 239
     ea8:	b2 2e       	mov	r11, r18
     eaa:	2a e0       	ldi	r18, 0x0A	; 10
     eac:	30 e0       	ldi	r19, 0x00	; 0
     eae:	25 c0       	rjmp	.+74     	; 0xefa <vfprintf+0x252>
     eb0:	f2 2f       	mov	r31, r18
     eb2:	f9 7f       	andi	r31, 0xF9	; 249
     eb4:	bf 2e       	mov	r11, r31
     eb6:	8f 36       	cpi	r24, 0x6F	; 111
     eb8:	c1 f0       	breq	.+48     	; 0xeea <vfprintf+0x242>
     eba:	18 f4       	brcc	.+6      	; 0xec2 <vfprintf+0x21a>
     ebc:	88 35       	cpi	r24, 0x58	; 88
     ebe:	79 f0       	breq	.+30     	; 0xede <vfprintf+0x236>
     ec0:	ad c0       	rjmp	.+346    	; 0x101c <vfprintf+0x374>
     ec2:	80 37       	cpi	r24, 0x70	; 112
     ec4:	19 f0       	breq	.+6      	; 0xecc <vfprintf+0x224>
     ec6:	88 37       	cpi	r24, 0x78	; 120
     ec8:	21 f0       	breq	.+8      	; 0xed2 <vfprintf+0x22a>
     eca:	a8 c0       	rjmp	.+336    	; 0x101c <vfprintf+0x374>
     ecc:	2f 2f       	mov	r18, r31
     ece:	20 61       	ori	r18, 0x10	; 16
     ed0:	b2 2e       	mov	r11, r18
     ed2:	b4 fe       	sbrs	r11, 4
     ed4:	0d c0       	rjmp	.+26     	; 0xef0 <vfprintf+0x248>
     ed6:	8b 2d       	mov	r24, r11
     ed8:	84 60       	ori	r24, 0x04	; 4
     eda:	b8 2e       	mov	r11, r24
     edc:	09 c0       	rjmp	.+18     	; 0xef0 <vfprintf+0x248>
     ede:	24 ff       	sbrs	r18, 4
     ee0:	0a c0       	rjmp	.+20     	; 0xef6 <vfprintf+0x24e>
     ee2:	9f 2f       	mov	r25, r31
     ee4:	96 60       	ori	r25, 0x06	; 6
     ee6:	b9 2e       	mov	r11, r25
     ee8:	06 c0       	rjmp	.+12     	; 0xef6 <vfprintf+0x24e>
     eea:	28 e0       	ldi	r18, 0x08	; 8
     eec:	30 e0       	ldi	r19, 0x00	; 0
     eee:	05 c0       	rjmp	.+10     	; 0xefa <vfprintf+0x252>
     ef0:	20 e1       	ldi	r18, 0x10	; 16
     ef2:	30 e0       	ldi	r19, 0x00	; 0
     ef4:	02 c0       	rjmp	.+4      	; 0xefa <vfprintf+0x252>
     ef6:	20 e1       	ldi	r18, 0x10	; 16
     ef8:	32 e0       	ldi	r19, 0x02	; 2
     efa:	f8 01       	movw	r30, r16
     efc:	b7 fe       	sbrs	r11, 7
     efe:	07 c0       	rjmp	.+14     	; 0xf0e <vfprintf+0x266>
     f00:	60 81       	ld	r22, Z
     f02:	71 81       	ldd	r23, Z+1	; 0x01
     f04:	82 81       	ldd	r24, Z+2	; 0x02
     f06:	93 81       	ldd	r25, Z+3	; 0x03
     f08:	0c 5f       	subi	r16, 0xFC	; 252
     f0a:	1f 4f       	sbci	r17, 0xFF	; 255
     f0c:	06 c0       	rjmp	.+12     	; 0xf1a <vfprintf+0x272>
     f0e:	60 81       	ld	r22, Z
     f10:	71 81       	ldd	r23, Z+1	; 0x01
     f12:	80 e0       	ldi	r24, 0x00	; 0
     f14:	90 e0       	ldi	r25, 0x00	; 0
     f16:	0e 5f       	subi	r16, 0xFE	; 254
     f18:	1f 4f       	sbci	r17, 0xFF	; 255
     f1a:	a4 01       	movw	r20, r8
     f1c:	d6 d0       	rcall	.+428    	; 0x10ca <__ultoa_invert>
     f1e:	a8 2e       	mov	r10, r24
     f20:	a8 18       	sub	r10, r8
     f22:	fb 2d       	mov	r31, r11
     f24:	ff 77       	andi	r31, 0x7F	; 127
     f26:	7f 2e       	mov	r7, r31
     f28:	76 fe       	sbrs	r7, 6
     f2a:	0b c0       	rjmp	.+22     	; 0xf42 <vfprintf+0x29a>
     f2c:	37 2d       	mov	r19, r7
     f2e:	3e 7f       	andi	r19, 0xFE	; 254
     f30:	a5 14       	cp	r10, r5
     f32:	50 f4       	brcc	.+20     	; 0xf48 <vfprintf+0x2a0>
     f34:	74 fe       	sbrs	r7, 4
     f36:	0a c0       	rjmp	.+20     	; 0xf4c <vfprintf+0x2a4>
     f38:	72 fc       	sbrc	r7, 2
     f3a:	08 c0       	rjmp	.+16     	; 0xf4c <vfprintf+0x2a4>
     f3c:	37 2d       	mov	r19, r7
     f3e:	3e 7e       	andi	r19, 0xEE	; 238
     f40:	05 c0       	rjmp	.+10     	; 0xf4c <vfprintf+0x2a4>
     f42:	ba 2c       	mov	r11, r10
     f44:	37 2d       	mov	r19, r7
     f46:	03 c0       	rjmp	.+6      	; 0xf4e <vfprintf+0x2a6>
     f48:	ba 2c       	mov	r11, r10
     f4a:	01 c0       	rjmp	.+2      	; 0xf4e <vfprintf+0x2a6>
     f4c:	b5 2c       	mov	r11, r5
     f4e:	34 ff       	sbrs	r19, 4
     f50:	0d c0       	rjmp	.+26     	; 0xf6c <vfprintf+0x2c4>
     f52:	fe 01       	movw	r30, r28
     f54:	ea 0d       	add	r30, r10
     f56:	f1 1d       	adc	r31, r1
     f58:	80 81       	ld	r24, Z
     f5a:	80 33       	cpi	r24, 0x30	; 48
     f5c:	11 f4       	brne	.+4      	; 0xf62 <vfprintf+0x2ba>
     f5e:	39 7e       	andi	r19, 0xE9	; 233
     f60:	09 c0       	rjmp	.+18     	; 0xf74 <vfprintf+0x2cc>
     f62:	32 ff       	sbrs	r19, 2
     f64:	06 c0       	rjmp	.+12     	; 0xf72 <vfprintf+0x2ca>
     f66:	b3 94       	inc	r11
     f68:	b3 94       	inc	r11
     f6a:	04 c0       	rjmp	.+8      	; 0xf74 <vfprintf+0x2cc>
     f6c:	83 2f       	mov	r24, r19
     f6e:	86 78       	andi	r24, 0x86	; 134
     f70:	09 f0       	breq	.+2      	; 0xf74 <vfprintf+0x2cc>
     f72:	b3 94       	inc	r11
     f74:	33 fd       	sbrc	r19, 3
     f76:	12 c0       	rjmp	.+36     	; 0xf9c <vfprintf+0x2f4>
     f78:	30 ff       	sbrs	r19, 0
     f7a:	06 c0       	rjmp	.+12     	; 0xf88 <vfprintf+0x2e0>
     f7c:	5a 2c       	mov	r5, r10
     f7e:	b3 14       	cp	r11, r3
     f80:	18 f4       	brcc	.+6      	; 0xf88 <vfprintf+0x2e0>
     f82:	53 0c       	add	r5, r3
     f84:	5b 18       	sub	r5, r11
     f86:	b3 2c       	mov	r11, r3
     f88:	b3 14       	cp	r11, r3
     f8a:	60 f4       	brcc	.+24     	; 0xfa4 <vfprintf+0x2fc>
     f8c:	b7 01       	movw	r22, r14
     f8e:	80 e2       	ldi	r24, 0x20	; 32
     f90:	90 e0       	ldi	r25, 0x00	; 0
     f92:	3c 87       	std	Y+12, r19	; 0x0c
     f94:	62 d0       	rcall	.+196    	; 0x105a <fputc>
     f96:	b3 94       	inc	r11
     f98:	3c 85       	ldd	r19, Y+12	; 0x0c
     f9a:	f6 cf       	rjmp	.-20     	; 0xf88 <vfprintf+0x2e0>
     f9c:	b3 14       	cp	r11, r3
     f9e:	10 f4       	brcc	.+4      	; 0xfa4 <vfprintf+0x2fc>
     fa0:	3b 18       	sub	r3, r11
     fa2:	01 c0       	rjmp	.+2      	; 0xfa6 <vfprintf+0x2fe>
     fa4:	31 2c       	mov	r3, r1
     fa6:	34 ff       	sbrs	r19, 4
     fa8:	11 c0       	rjmp	.+34     	; 0xfcc <vfprintf+0x324>
     faa:	b7 01       	movw	r22, r14
     fac:	80 e3       	ldi	r24, 0x30	; 48
     fae:	90 e0       	ldi	r25, 0x00	; 0
     fb0:	3c 87       	std	Y+12, r19	; 0x0c
     fb2:	53 d0       	rcall	.+166    	; 0x105a <fputc>
     fb4:	3c 85       	ldd	r19, Y+12	; 0x0c
     fb6:	32 ff       	sbrs	r19, 2
     fb8:	16 c0       	rjmp	.+44     	; 0xfe6 <vfprintf+0x33e>
     fba:	31 fd       	sbrc	r19, 1
     fbc:	03 c0       	rjmp	.+6      	; 0xfc4 <vfprintf+0x31c>
     fbe:	88 e7       	ldi	r24, 0x78	; 120
     fc0:	90 e0       	ldi	r25, 0x00	; 0
     fc2:	02 c0       	rjmp	.+4      	; 0xfc8 <vfprintf+0x320>
     fc4:	88 e5       	ldi	r24, 0x58	; 88
     fc6:	90 e0       	ldi	r25, 0x00	; 0
     fc8:	b7 01       	movw	r22, r14
     fca:	0c c0       	rjmp	.+24     	; 0xfe4 <vfprintf+0x33c>
     fcc:	83 2f       	mov	r24, r19
     fce:	86 78       	andi	r24, 0x86	; 134
     fd0:	51 f0       	breq	.+20     	; 0xfe6 <vfprintf+0x33e>
     fd2:	31 ff       	sbrs	r19, 1
     fd4:	02 c0       	rjmp	.+4      	; 0xfda <vfprintf+0x332>
     fd6:	8b e2       	ldi	r24, 0x2B	; 43
     fd8:	01 c0       	rjmp	.+2      	; 0xfdc <vfprintf+0x334>
     fda:	80 e2       	ldi	r24, 0x20	; 32
     fdc:	37 fd       	sbrc	r19, 7
     fde:	8d e2       	ldi	r24, 0x2D	; 45
     fe0:	b7 01       	movw	r22, r14
     fe2:	90 e0       	ldi	r25, 0x00	; 0
     fe4:	3a d0       	rcall	.+116    	; 0x105a <fputc>
     fe6:	a5 14       	cp	r10, r5
     fe8:	30 f4       	brcc	.+12     	; 0xff6 <vfprintf+0x34e>
     fea:	b7 01       	movw	r22, r14
     fec:	80 e3       	ldi	r24, 0x30	; 48
     fee:	90 e0       	ldi	r25, 0x00	; 0
     ff0:	34 d0       	rcall	.+104    	; 0x105a <fputc>
     ff2:	5a 94       	dec	r5
     ff4:	f8 cf       	rjmp	.-16     	; 0xfe6 <vfprintf+0x33e>
     ff6:	aa 94       	dec	r10
     ff8:	f4 01       	movw	r30, r8
     ffa:	ea 0d       	add	r30, r10
     ffc:	f1 1d       	adc	r31, r1
     ffe:	80 81       	ld	r24, Z
    1000:	b7 01       	movw	r22, r14
    1002:	90 e0       	ldi	r25, 0x00	; 0
    1004:	2a d0       	rcall	.+84     	; 0x105a <fputc>
    1006:	a1 10       	cpse	r10, r1
    1008:	f6 cf       	rjmp	.-20     	; 0xff6 <vfprintf+0x34e>
    100a:	33 20       	and	r3, r3
    100c:	09 f4       	brne	.+2      	; 0x1010 <vfprintf+0x368>
    100e:	5d ce       	rjmp	.-838    	; 0xcca <vfprintf+0x22>
    1010:	b7 01       	movw	r22, r14
    1012:	80 e2       	ldi	r24, 0x20	; 32
    1014:	90 e0       	ldi	r25, 0x00	; 0
    1016:	21 d0       	rcall	.+66     	; 0x105a <fputc>
    1018:	3a 94       	dec	r3
    101a:	f7 cf       	rjmp	.-18     	; 0x100a <vfprintf+0x362>
    101c:	f7 01       	movw	r30, r14
    101e:	86 81       	ldd	r24, Z+6	; 0x06
    1020:	97 81       	ldd	r25, Z+7	; 0x07
    1022:	02 c0       	rjmp	.+4      	; 0x1028 <vfprintf+0x380>
    1024:	8f ef       	ldi	r24, 0xFF	; 255
    1026:	9f ef       	ldi	r25, 0xFF	; 255
    1028:	2c 96       	adiw	r28, 0x0c	; 12
    102a:	e2 e1       	ldi	r30, 0x12	; 18
    102c:	d3 c0       	rjmp	.+422    	; 0x11d4 <__epilogue_restores__>

0000102e <strnlen_P>:
    102e:	fc 01       	movw	r30, r24
    1030:	05 90       	lpm	r0, Z+
    1032:	61 50       	subi	r22, 0x01	; 1
    1034:	70 40       	sbci	r23, 0x00	; 0
    1036:	01 10       	cpse	r0, r1
    1038:	d8 f7       	brcc	.-10     	; 0x1030 <strnlen_P+0x2>
    103a:	80 95       	com	r24
    103c:	90 95       	com	r25
    103e:	8e 0f       	add	r24, r30
    1040:	9f 1f       	adc	r25, r31
    1042:	08 95       	ret

00001044 <strnlen>:
    1044:	fc 01       	movw	r30, r24
    1046:	61 50       	subi	r22, 0x01	; 1
    1048:	70 40       	sbci	r23, 0x00	; 0
    104a:	01 90       	ld	r0, Z+
    104c:	01 10       	cpse	r0, r1
    104e:	d8 f7       	brcc	.-10     	; 0x1046 <strnlen+0x2>
    1050:	80 95       	com	r24
    1052:	90 95       	com	r25
    1054:	8e 0f       	add	r24, r30
    1056:	9f 1f       	adc	r25, r31
    1058:	08 95       	ret

0000105a <fputc>:
    105a:	0f 93       	push	r16
    105c:	1f 93       	push	r17
    105e:	cf 93       	push	r28
    1060:	df 93       	push	r29
    1062:	fb 01       	movw	r30, r22
    1064:	23 81       	ldd	r18, Z+3	; 0x03
    1066:	21 fd       	sbrc	r18, 1
    1068:	03 c0       	rjmp	.+6      	; 0x1070 <fputc+0x16>
    106a:	8f ef       	ldi	r24, 0xFF	; 255
    106c:	9f ef       	ldi	r25, 0xFF	; 255
    106e:	28 c0       	rjmp	.+80     	; 0x10c0 <fputc+0x66>
    1070:	22 ff       	sbrs	r18, 2
    1072:	16 c0       	rjmp	.+44     	; 0x10a0 <fputc+0x46>
    1074:	46 81       	ldd	r20, Z+6	; 0x06
    1076:	57 81       	ldd	r21, Z+7	; 0x07
    1078:	24 81       	ldd	r18, Z+4	; 0x04
    107a:	35 81       	ldd	r19, Z+5	; 0x05
    107c:	42 17       	cp	r20, r18
    107e:	53 07       	cpc	r21, r19
    1080:	44 f4       	brge	.+16     	; 0x1092 <fputc+0x38>
    1082:	a0 81       	ld	r26, Z
    1084:	b1 81       	ldd	r27, Z+1	; 0x01
    1086:	9d 01       	movw	r18, r26
    1088:	2f 5f       	subi	r18, 0xFF	; 255
    108a:	3f 4f       	sbci	r19, 0xFF	; 255
    108c:	31 83       	std	Z+1, r19	; 0x01
    108e:	20 83       	st	Z, r18
    1090:	8c 93       	st	X, r24
    1092:	26 81       	ldd	r18, Z+6	; 0x06
    1094:	37 81       	ldd	r19, Z+7	; 0x07
    1096:	2f 5f       	subi	r18, 0xFF	; 255
    1098:	3f 4f       	sbci	r19, 0xFF	; 255
    109a:	37 83       	std	Z+7, r19	; 0x07
    109c:	26 83       	std	Z+6, r18	; 0x06
    109e:	10 c0       	rjmp	.+32     	; 0x10c0 <fputc+0x66>
    10a0:	eb 01       	movw	r28, r22
    10a2:	09 2f       	mov	r16, r25
    10a4:	18 2f       	mov	r17, r24
    10a6:	00 84       	ldd	r0, Z+8	; 0x08
    10a8:	f1 85       	ldd	r31, Z+9	; 0x09
    10aa:	e0 2d       	mov	r30, r0
    10ac:	09 95       	icall
    10ae:	89 2b       	or	r24, r25
    10b0:	e1 f6       	brne	.-72     	; 0x106a <fputc+0x10>
    10b2:	8e 81       	ldd	r24, Y+6	; 0x06
    10b4:	9f 81       	ldd	r25, Y+7	; 0x07
    10b6:	01 96       	adiw	r24, 0x01	; 1
    10b8:	9f 83       	std	Y+7, r25	; 0x07
    10ba:	8e 83       	std	Y+6, r24	; 0x06
    10bc:	81 2f       	mov	r24, r17
    10be:	90 2f       	mov	r25, r16
    10c0:	df 91       	pop	r29
    10c2:	cf 91       	pop	r28
    10c4:	1f 91       	pop	r17
    10c6:	0f 91       	pop	r16
    10c8:	08 95       	ret

000010ca <__ultoa_invert>:
    10ca:	fa 01       	movw	r30, r20
    10cc:	aa 27       	eor	r26, r26
    10ce:	28 30       	cpi	r18, 0x08	; 8
    10d0:	61 f1       	breq	.+88     	; 0x112a <__ultoa_invert+0x60>
    10d2:	20 31       	cpi	r18, 0x10	; 16
    10d4:	91 f1       	breq	.+100    	; 0x113a <__ultoa_invert+0x70>
    10d6:	e8 94       	clt
    10d8:	6f 93       	push	r22
    10da:	6e 7f       	andi	r22, 0xFE	; 254
    10dc:	6e 5f       	subi	r22, 0xFE	; 254
    10de:	7f 4f       	sbci	r23, 0xFF	; 255
    10e0:	8f 4f       	sbci	r24, 0xFF	; 255
    10e2:	9f 4f       	sbci	r25, 0xFF	; 255
    10e4:	af 4f       	sbci	r26, 0xFF	; 255
    10e6:	b1 e0       	ldi	r27, 0x01	; 1
    10e8:	40 d0       	rcall	.+128    	; 0x116a <__ultoa_invert+0xa0>
    10ea:	b4 e0       	ldi	r27, 0x04	; 4
    10ec:	3e d0       	rcall	.+124    	; 0x116a <__ultoa_invert+0xa0>
    10ee:	67 0f       	add	r22, r23
    10f0:	78 1f       	adc	r23, r24
    10f2:	89 1f       	adc	r24, r25
    10f4:	9a 1f       	adc	r25, r26
    10f6:	a1 1d       	adc	r26, r1
    10f8:	68 0f       	add	r22, r24
    10fa:	79 1f       	adc	r23, r25
    10fc:	8a 1f       	adc	r24, r26
    10fe:	91 1d       	adc	r25, r1
    1100:	a1 1d       	adc	r26, r1
    1102:	6a 0f       	add	r22, r26
    1104:	71 1d       	adc	r23, r1
    1106:	81 1d       	adc	r24, r1
    1108:	91 1d       	adc	r25, r1
    110a:	a1 1d       	adc	r26, r1
    110c:	22 d0       	rcall	.+68     	; 0x1152 <__ultoa_invert+0x88>
    110e:	09 f4       	brne	.+2      	; 0x1112 <__ultoa_invert+0x48>
    1110:	68 94       	set
    1112:	3f 91       	pop	r19
    1114:	06 2e       	mov	r0, r22
    1116:	00 0c       	add	r0, r0
    1118:	30 19       	sub	r19, r0
    111a:	00 0c       	add	r0, r0
    111c:	00 0c       	add	r0, r0
    111e:	30 19       	sub	r19, r0
    1120:	30 5d       	subi	r19, 0xD0	; 208
    1122:	31 93       	st	Z+, r19
    1124:	ce f6       	brtc	.-78     	; 0x10d8 <__ultoa_invert+0xe>
    1126:	cf 01       	movw	r24, r30
    1128:	08 95       	ret
    112a:	46 2f       	mov	r20, r22
    112c:	47 70       	andi	r20, 0x07	; 7
    112e:	40 5d       	subi	r20, 0xD0	; 208
    1130:	41 93       	st	Z+, r20
    1132:	b3 e0       	ldi	r27, 0x03	; 3
    1134:	0f d0       	rcall	.+30     	; 0x1154 <__ultoa_invert+0x8a>
    1136:	c9 f7       	brne	.-14     	; 0x112a <__ultoa_invert+0x60>
    1138:	f6 cf       	rjmp	.-20     	; 0x1126 <__ultoa_invert+0x5c>
    113a:	46 2f       	mov	r20, r22
    113c:	4f 70       	andi	r20, 0x0F	; 15
    113e:	40 5d       	subi	r20, 0xD0	; 208
    1140:	4a 33       	cpi	r20, 0x3A	; 58
    1142:	18 f0       	brcs	.+6      	; 0x114a <__ultoa_invert+0x80>
    1144:	49 5d       	subi	r20, 0xD9	; 217
    1146:	31 fd       	sbrc	r19, 1
    1148:	40 52       	subi	r20, 0x20	; 32
    114a:	41 93       	st	Z+, r20
    114c:	02 d0       	rcall	.+4      	; 0x1152 <__ultoa_invert+0x88>
    114e:	a9 f7       	brne	.-22     	; 0x113a <__ultoa_invert+0x70>
    1150:	ea cf       	rjmp	.-44     	; 0x1126 <__ultoa_invert+0x5c>
    1152:	b4 e0       	ldi	r27, 0x04	; 4
    1154:	a6 95       	lsr	r26
    1156:	97 95       	ror	r25
    1158:	87 95       	ror	r24
    115a:	77 95       	ror	r23
    115c:	67 95       	ror	r22
    115e:	ba 95       	dec	r27
    1160:	c9 f7       	brne	.-14     	; 0x1154 <__ultoa_invert+0x8a>
    1162:	00 97       	sbiw	r24, 0x00	; 0
    1164:	61 05       	cpc	r22, r1
    1166:	71 05       	cpc	r23, r1
    1168:	08 95       	ret
    116a:	9b 01       	movw	r18, r22
    116c:	ac 01       	movw	r20, r24
    116e:	0a 2e       	mov	r0, r26
    1170:	06 94       	lsr	r0
    1172:	57 95       	ror	r21
    1174:	47 95       	ror	r20
    1176:	37 95       	ror	r19
    1178:	27 95       	ror	r18
    117a:	ba 95       	dec	r27
    117c:	c9 f7       	brne	.-14     	; 0x1170 <__ultoa_invert+0xa6>
    117e:	62 0f       	add	r22, r18
    1180:	73 1f       	adc	r23, r19
    1182:	84 1f       	adc	r24, r20
    1184:	95 1f       	adc	r25, r21
    1186:	a0 1d       	adc	r26, r0
    1188:	08 95       	ret

0000118a <__mulqi3>:
    118a:	00 24       	eor	r0, r0

0000118c <__mulqi3_loop>:
    118c:	80 fd       	sbrc	r24, 0
    118e:	06 0e       	add	r0, r22
    1190:	66 0f       	add	r22, r22
    1192:	11 f0       	breq	.+4      	; 0x1198 <__mulqi3_exit>
    1194:	86 95       	lsr	r24
    1196:	d1 f7       	brne	.-12     	; 0x118c <__mulqi3_loop>

00001198 <__mulqi3_exit>:
    1198:	80 2d       	mov	r24, r0
    119a:	08 95       	ret

0000119c <__prologue_saves__>:
    119c:	2f 92       	push	r2
    119e:	3f 92       	push	r3
    11a0:	4f 92       	push	r4
    11a2:	5f 92       	push	r5
    11a4:	6f 92       	push	r6
    11a6:	7f 92       	push	r7
    11a8:	8f 92       	push	r8
    11aa:	9f 92       	push	r9
    11ac:	af 92       	push	r10
    11ae:	bf 92       	push	r11
    11b0:	cf 92       	push	r12
    11b2:	df 92       	push	r13
    11b4:	ef 92       	push	r14
    11b6:	ff 92       	push	r15
    11b8:	0f 93       	push	r16
    11ba:	1f 93       	push	r17
    11bc:	cf 93       	push	r28
    11be:	df 93       	push	r29
    11c0:	cd b7       	in	r28, 0x3d	; 61
    11c2:	de b7       	in	r29, 0x3e	; 62
    11c4:	ca 1b       	sub	r28, r26
    11c6:	db 0b       	sbc	r29, r27
    11c8:	0f b6       	in	r0, 0x3f	; 63
    11ca:	f8 94       	cli
    11cc:	de bf       	out	0x3e, r29	; 62
    11ce:	0f be       	out	0x3f, r0	; 63
    11d0:	cd bf       	out	0x3d, r28	; 61
    11d2:	09 94       	ijmp

000011d4 <__epilogue_restores__>:
    11d4:	2a 88       	ldd	r2, Y+18	; 0x12
    11d6:	39 88       	ldd	r3, Y+17	; 0x11
    11d8:	48 88       	ldd	r4, Y+16	; 0x10
    11da:	5f 84       	ldd	r5, Y+15	; 0x0f
    11dc:	6e 84       	ldd	r6, Y+14	; 0x0e
    11de:	7d 84       	ldd	r7, Y+13	; 0x0d
    11e0:	8c 84       	ldd	r8, Y+12	; 0x0c
    11e2:	9b 84       	ldd	r9, Y+11	; 0x0b
    11e4:	aa 84       	ldd	r10, Y+10	; 0x0a
    11e6:	b9 84       	ldd	r11, Y+9	; 0x09
    11e8:	c8 84       	ldd	r12, Y+8	; 0x08
    11ea:	df 80       	ldd	r13, Y+7	; 0x07
    11ec:	ee 80       	ldd	r14, Y+6	; 0x06
    11ee:	fd 80       	ldd	r15, Y+5	; 0x05
    11f0:	0c 81       	ldd	r16, Y+4	; 0x04
    11f2:	1b 81       	ldd	r17, Y+3	; 0x03
    11f4:	aa 81       	ldd	r26, Y+2	; 0x02
    11f6:	b9 81       	ldd	r27, Y+1	; 0x01
    11f8:	ce 0f       	add	r28, r30
    11fa:	d1 1d       	adc	r29, r1
    11fc:	0f b6       	in	r0, 0x3f	; 63
    11fe:	f8 94       	cli
    1200:	de bf       	out	0x3e, r29	; 62
    1202:	0f be       	out	0x3f, r0	; 63
    1204:	cd bf       	out	0x3d, r28	; 61
    1206:	ed 01       	movw	r28, r26
    1208:	08 95       	ret

0000120a <_exit>:
    120a:	f8 94       	cli

0000120c <__stop_program>:
    120c:	ff cf       	rjmp	.-2      	; 0x120c <__stop_program>
